
hackthon_2021_stm32l433cc.elf:     file format elf32-littlearm

Sections:
Idx Name          Size      VMA       LMA       File off  Algn
  0 .isr_vector   0000018c  08000000  08000000  00010000  2**0
                  CONTENTS, ALLOC, LOAD, READONLY, DATA
  1 .text         00001200  0800018c  0800018c  0001018c  2**2
                  CONTENTS, ALLOC, LOAD, READONLY, CODE
  2 .rodata       00000040  0800138c  0800138c  0001138c  2**2
                  CONTENTS, ALLOC, LOAD, READONLY, DATA
  3 .ARM.extab    00000000  080013cc  080013cc  0002000c  2**0
                  CONTENTS
  4 .ARM          00000000  080013cc  080013cc  0002000c  2**0
                  CONTENTS
  5 .preinit_array 00000000  080013cc  080013cc  0002000c  2**0
                  CONTENTS, ALLOC, LOAD, DATA
  6 .init_array   00000004  080013cc  080013cc  000113cc  2**2
                  CONTENTS, ALLOC, LOAD, DATA
  7 .fini_array   00000004  080013d0  080013d0  000113d0  2**2
                  CONTENTS, ALLOC, LOAD, DATA
  8 .data         0000000c  20000000  080013d4  00020000  2**2
                  CONTENTS, ALLOC, LOAD, DATA
  9 .bss          00000020  2000000c  080013e0  0002000c  2**2
                  ALLOC
 10 ._user_heap_stack 00000604  2000002c  080013e0  0002002c  2**0
                  ALLOC
 11 .ARM.attributes 00000030  00000000  00000000  0002000c  2**0
                  CONTENTS, READONLY
 12 .debug_info   00004ac2  00000000  00000000  0002003c  2**0
                  CONTENTS, READONLY, DEBUGGING, OCTETS
 13 .debug_abbrev 00000ec7  00000000  00000000  00024afe  2**0
                  CONTENTS, READONLY, DEBUGGING, OCTETS
 14 .debug_aranges 000004f8  00000000  00000000  000259c8  2**3
                  CONTENTS, READONLY, DEBUGGING, OCTETS
 15 .debug_ranges 00000470  00000000  00000000  00025ec0  2**3
                  CONTENTS, READONLY, DEBUGGING, OCTETS
 16 .debug_macro  0001fec8  00000000  00000000  00026330  2**0
                  CONTENTS, READONLY, DEBUGGING, OCTETS
 17 .debug_line   00004e00  00000000  00000000  000461f8  2**0
                  CONTENTS, READONLY, DEBUGGING, OCTETS
 18 .debug_str    000c2b07  00000000  00000000  0004aff8  2**0
                  CONTENTS, READONLY, DEBUGGING, OCTETS
 19 .comment      00000053  00000000  00000000  0010daff  2**0
                  CONTENTS, READONLY
 20 .debug_frame  00001210  00000000  00000000  0010db54  2**2
                  CONTENTS, READONLY, DEBUGGING, OCTETS

Disassembly of section .text:

0800018c <__do_global_dtors_aux>:
 800018c:	b510      	push	{r4, lr}
 800018e:	4c05      	ldr	r4, [pc, #20]	; (80001a4 <__do_global_dtors_aux+0x18>)
 8000190:	7823      	ldrb	r3, [r4, #0]
 8000192:	b933      	cbnz	r3, 80001a2 <__do_global_dtors_aux+0x16>
 8000194:	4b04      	ldr	r3, [pc, #16]	; (80001a8 <__do_global_dtors_aux+0x1c>)
 8000196:	b113      	cbz	r3, 800019e <__do_global_dtors_aux+0x12>
 8000198:	4804      	ldr	r0, [pc, #16]	; (80001ac <__do_global_dtors_aux+0x20>)
 800019a:	f3af 8000 	nop.w
 800019e:	2301      	movs	r3, #1
 80001a0:	7023      	strb	r3, [r4, #0]
 80001a2:	bd10      	pop	{r4, pc}
 80001a4:	2000000c 	.word	0x2000000c
 80001a8:	00000000 	.word	0x00000000
 80001ac:	08001374 	.word	0x08001374

080001b0 <frame_dummy>:
 80001b0:	b508      	push	{r3, lr}
 80001b2:	4b03      	ldr	r3, [pc, #12]	; (80001c0 <frame_dummy+0x10>)
 80001b4:	b11b      	cbz	r3, 80001be <frame_dummy+0xe>
 80001b6:	4903      	ldr	r1, [pc, #12]	; (80001c4 <frame_dummy+0x14>)
 80001b8:	4803      	ldr	r0, [pc, #12]	; (80001c8 <frame_dummy+0x18>)
 80001ba:	f3af 8000 	nop.w
 80001be:	bd08      	pop	{r3, pc}
 80001c0:	00000000 	.word	0x00000000
 80001c4:	20000010 	.word	0x20000010
 80001c8:	08001374 	.word	0x08001374

080001cc <main>:
/**
  * @brief  The application entry point.
  * @retval int
  */
int main(void)
{
 80001cc:	b580      	push	{r7, lr}
 80001ce:	af00      	add	r7, sp, #0
  /* USER CODE END 1 */

  /* MCU Configuration--------------------------------------------------------*/

  /* Reset of all peripherals, Initializes the Flash interface and the Systick. */
  HAL_Init();
 80001d0:	f000 f8f7 	bl	80003c2 <HAL_Init>
  /* USER CODE BEGIN Init */

  /* USER CODE END Init */

  /* Configure the system clock */
  SystemClock_Config();
 80001d4:	f000 f801 	bl	80001da <SystemClock_Config>

  /* USER CODE END 2 */

  /* Infinite loop */
  /* USER CODE BEGIN WHILE */
  while (1)
 80001d8:	e7fe      	b.n	80001d8 <main+0xc>

080001da <SystemClock_Config>:
/**
  * @brief System Clock Configuration
  * @retval None
  */
void SystemClock_Config(void)
{
 80001da:	b580      	push	{r7, lr}
 80001dc:	b096      	sub	sp, #88	; 0x58
 80001de:	af00      	add	r7, sp, #0
  RCC_OscInitTypeDef RCC_OscInitStruct = {0};
 80001e0:	f107 0314 	add.w	r3, r7, #20
 80001e4:	2244      	movs	r2, #68	; 0x44
 80001e6:	2100      	movs	r1, #0
 80001e8:	4618      	mov	r0, r3
 80001ea:	f001 f8bb 	bl	8001364 <memset>
  RCC_ClkInitTypeDef RCC_ClkInitStruct = {0};
 80001ee:	463b      	mov	r3, r7
 80001f0:	2200      	movs	r2, #0
 80001f2:	601a      	str	r2, [r3, #0]
 80001f4:	605a      	str	r2, [r3, #4]
 80001f6:	609a      	str	r2, [r3, #8]
 80001f8:	60da      	str	r2, [r3, #12]
 80001fa:	611a      	str	r2, [r3, #16]

  /** Configure the main internal regulator output voltage
  */
  if (HAL_PWREx_ControlVoltageScaling(PWR_REGULATOR_VOLTAGE_SCALE1) != HAL_OK)
 80001fc:	f44f 7000 	mov.w	r0, #512	; 0x200
 8000200:	f000 fa48 	bl	8000694 <HAL_PWREx_ControlVoltageScaling>
 8000204:	4603      	mov	r3, r0
 8000206:	2b00      	cmp	r3, #0
 8000208:	d001      	beq.n	800020e <SystemClock_Config+0x34>
  {
    Error_Handler();
 800020a:	f000 f82c 	bl	8000266 <Error_Handler>
  }
  /** Initializes the RCC Oscillators according to the specified parameters
  * in the RCC_OscInitTypeDef structure.
  */
  RCC_OscInitStruct.OscillatorType = RCC_OSCILLATORTYPE_MSI;
 800020e:	2310      	movs	r3, #16
 8000210:	617b      	str	r3, [r7, #20]
  RCC_OscInitStruct.MSIState = RCC_MSI_ON;
 8000212:	2301      	movs	r3, #1
 8000214:	62fb      	str	r3, [r7, #44]	; 0x2c
  RCC_OscInitStruct.MSICalibrationValue = 0;
 8000216:	2300      	movs	r3, #0
 8000218:	633b      	str	r3, [r7, #48]	; 0x30
  RCC_OscInitStruct.MSIClockRange = RCC_MSIRANGE_6;
 800021a:	2360      	movs	r3, #96	; 0x60
 800021c:	637b      	str	r3, [r7, #52]	; 0x34
  RCC_OscInitStruct.PLL.PLLState = RCC_PLL_NONE;
 800021e:	2300      	movs	r3, #0
 8000220:	63fb      	str	r3, [r7, #60]	; 0x3c
  if (HAL_RCC_OscConfig(&RCC_OscInitStruct) != HAL_OK)
 8000222:	f107 0314 	add.w	r3, r7, #20
 8000226:	4618      	mov	r0, r3
 8000228:	f000 fa8a 	bl	8000740 <HAL_RCC_OscConfig>
 800022c:	4603      	mov	r3, r0
 800022e:	2b00      	cmp	r3, #0
 8000230:	d001      	beq.n	8000236 <SystemClock_Config+0x5c>
  {
    Error_Handler();
 8000232:	f000 f818 	bl	8000266 <Error_Handler>
  }
  /** Initializes the CPU, AHB and APB buses clocks
  */
  RCC_ClkInitStruct.ClockType = RCC_CLOCKTYPE_HCLK|RCC_CLOCKTYPE_SYSCLK
 8000236:	230f      	movs	r3, #15
 8000238:	603b      	str	r3, [r7, #0]
                              |RCC_CLOCKTYPE_PCLK1|RCC_CLOCKTYPE_PCLK2;
  RCC_ClkInitStruct.SYSCLKSource = RCC_SYSCLKSOURCE_MSI;
 800023a:	2300      	movs	r3, #0
 800023c:	607b      	str	r3, [r7, #4]
  RCC_ClkInitStruct.AHBCLKDivider = RCC_SYSCLK_DIV1;
 800023e:	2300      	movs	r3, #0
 8000240:	60bb      	str	r3, [r7, #8]
  RCC_ClkInitStruct.APB1CLKDivider = RCC_HCLK_DIV1;
 8000242:	2300      	movs	r3, #0
 8000244:	60fb      	str	r3, [r7, #12]
  RCC_ClkInitStruct.APB2CLKDivider = RCC_HCLK_DIV1;
 8000246:	2300      	movs	r3, #0
 8000248:	613b      	str	r3, [r7, #16]

  if (HAL_RCC_ClockConfig(&RCC_ClkInitStruct, FLASH_LATENCY_0) != HAL_OK)
 800024a:	463b      	mov	r3, r7
 800024c:	2100      	movs	r1, #0
 800024e:	4618      	mov	r0, r3
 8000250:	f000 fe96 	bl	8000f80 <HAL_RCC_ClockConfig>
 8000254:	4603      	mov	r3, r0
 8000256:	2b00      	cmp	r3, #0
 8000258:	d001      	beq.n	800025e <SystemClock_Config+0x84>
  {
    Error_Handler();
 800025a:	f000 f804 	bl	8000266 <Error_Handler>
  }
}
 800025e:	bf00      	nop
 8000260:	3758      	adds	r7, #88	; 0x58
 8000262:	46bd      	mov	sp, r7
 8000264:	bd80      	pop	{r7, pc}

08000266 <Error_Handler>:
/**
  * @brief  This function is executed in case of error occurrence.
  * @retval None
  */
void Error_Handler(void)
{
 8000266:	b480      	push	{r7}
 8000268:	af00      	add	r7, sp, #0
  \details Disables IRQ interrupts by setting the I-bit in the CPSR.
           Can only be executed in Privileged modes.
 */
__STATIC_FORCEINLINE void __disable_irq(void)
{
  __ASM volatile ("cpsid i" : : : "memory");
 800026a:	b672      	cpsid	i
}
 800026c:	bf00      	nop
  /* USER CODE BEGIN Error_Handler_Debug */
  /* User can add his own implementation to report the HAL error return state */
  __disable_irq();
  while (1)
 800026e:	e7fe      	b.n	800026e <Error_Handler+0x8>

08000270 <HAL_MspInit>:
/* USER CODE END 0 */
/**
  * Initializes the Global MSP.
  */
void HAL_MspInit(void)
{
 8000270:	b480      	push	{r7}
 8000272:	b083      	sub	sp, #12
 8000274:	af00      	add	r7, sp, #0
  /* USER CODE BEGIN MspInit 0 */

  /* USER CODE END MspInit 0 */

  __HAL_RCC_SYSCFG_CLK_ENABLE();
 8000276:	4b0f      	ldr	r3, [pc, #60]	; (80002b4 <HAL_MspInit+0x44>)
 8000278:	6e1b      	ldr	r3, [r3, #96]	; 0x60
 800027a:	4a0e      	ldr	r2, [pc, #56]	; (80002b4 <HAL_MspInit+0x44>)
 800027c:	f043 0301 	orr.w	r3, r3, #1
 8000280:	6613      	str	r3, [r2, #96]	; 0x60
 8000282:	4b0c      	ldr	r3, [pc, #48]	; (80002b4 <HAL_MspInit+0x44>)
 8000284:	6e1b      	ldr	r3, [r3, #96]	; 0x60
 8000286:	f003 0301 	and.w	r3, r3, #1
 800028a:	607b      	str	r3, [r7, #4]
 800028c:	687b      	ldr	r3, [r7, #4]
  __HAL_RCC_PWR_CLK_ENABLE();
 800028e:	4b09      	ldr	r3, [pc, #36]	; (80002b4 <HAL_MspInit+0x44>)
 8000290:	6d9b      	ldr	r3, [r3, #88]	; 0x58
 8000292:	4a08      	ldr	r2, [pc, #32]	; (80002b4 <HAL_MspInit+0x44>)
 8000294:	f043 5380 	orr.w	r3, r3, #268435456	; 0x10000000
 8000298:	6593      	str	r3, [r2, #88]	; 0x58
 800029a:	4b06      	ldr	r3, [pc, #24]	; (80002b4 <HAL_MspInit+0x44>)
 800029c:	6d9b      	ldr	r3, [r3, #88]	; 0x58
 800029e:	f003 5380 	and.w	r3, r3, #268435456	; 0x10000000
 80002a2:	603b      	str	r3, [r7, #0]
 80002a4:	683b      	ldr	r3, [r7, #0]
  /* System interrupt init*/

  /* USER CODE BEGIN MspInit 1 */

  /* USER CODE END MspInit 1 */
}
 80002a6:	bf00      	nop
 80002a8:	370c      	adds	r7, #12
 80002aa:	46bd      	mov	sp, r7
 80002ac:	f85d 7b04 	ldr.w	r7, [sp], #4
 80002b0:	4770      	bx	lr
 80002b2:	bf00      	nop
 80002b4:	40021000 	.word	0x40021000

080002b8 <NMI_Handler>:
/******************************************************************************/
/**
  * @brief This function handles Non maskable interrupt.
  */
void NMI_Handler(void)
{
 80002b8:	b480      	push	{r7}
 80002ba:	af00      	add	r7, sp, #0
  /* USER CODE BEGIN NonMaskableInt_IRQn 0 */

  /* USER CODE END NonMaskableInt_IRQn 0 */
  /* USER CODE BEGIN NonMaskableInt_IRQn 1 */
  while (1)
 80002bc:	e7fe      	b.n	80002bc <NMI_Handler+0x4>

080002be <HardFault_Handler>:

/**
  * @brief This function handles Hard fault interrupt.
  */
void HardFault_Handler(void)
{
 80002be:	b480      	push	{r7}
 80002c0:	af00      	add	r7, sp, #0
  /* USER CODE BEGIN HardFault_IRQn 0 */

  /* USER CODE END HardFault_IRQn 0 */
  while (1)
 80002c2:	e7fe      	b.n	80002c2 <HardFault_Handler+0x4>

080002c4 <MemManage_Handler>:

/**
  * @brief This function handles Memory management fault.
  */
void MemManage_Handler(void)
{
 80002c4:	b480      	push	{r7}
 80002c6:	af00      	add	r7, sp, #0
  /* USER CODE BEGIN MemoryManagement_IRQn 0 */

  /* USER CODE END MemoryManagement_IRQn 0 */
  while (1)
 80002c8:	e7fe      	b.n	80002c8 <MemManage_Handler+0x4>

080002ca <BusFault_Handler>:

/**
  * @brief This function handles Prefetch fault, memory access fault.
  */
void BusFault_Handler(void)
{
 80002ca:	b480      	push	{r7}
 80002cc:	af00      	add	r7, sp, #0
  /* USER CODE BEGIN BusFault_IRQn 0 */

  /* USER CODE END BusFault_IRQn 0 */
  while (1)
 80002ce:	e7fe      	b.n	80002ce <BusFault_Handler+0x4>

080002d0 <UsageFault_Handler>:

/**
  * @brief This function handles Undefined instruction or illegal state.
  */
void UsageFault_Handler(void)
{
 80002d0:	b480      	push	{r7}
 80002d2:	af00      	add	r7, sp, #0
  /* USER CODE BEGIN UsageFault_IRQn 0 */

  /* USER CODE END UsageFault_IRQn 0 */
  while (1)
 80002d4:	e7fe      	b.n	80002d4 <UsageFault_Handler+0x4>

080002d6 <SVC_Handler>:

/**
  * @brief This function handles System service call via SWI instruction.
  */
void SVC_Handler(void)
{
 80002d6:	b480      	push	{r7}
 80002d8:	af00      	add	r7, sp, #0

  /* USER CODE END SVCall_IRQn 0 */
  /* USER CODE BEGIN SVCall_IRQn 1 */

  /* USER CODE END SVCall_IRQn 1 */
}
 80002da:	bf00      	nop
 80002dc:	46bd      	mov	sp, r7
 80002de:	f85d 7b04 	ldr.w	r7, [sp], #4
 80002e2:	4770      	bx	lr

080002e4 <DebugMon_Handler>:

/**
  * @brief This function handles Debug monitor.
  */
void DebugMon_Handler(void)
{
 80002e4:	b480      	push	{r7}
 80002e6:	af00      	add	r7, sp, #0

  /* USER CODE END DebugMonitor_IRQn 0 */
  /* USER CODE BEGIN DebugMonitor_IRQn 1 */

  /* USER CODE END DebugMonitor_IRQn 1 */
}
 80002e8:	bf00      	nop
 80002ea:	46bd      	mov	sp, r7
 80002ec:	f85d 7b04 	ldr.w	r7, [sp], #4
 80002f0:	4770      	bx	lr

080002f2 <PendSV_Handler>:

/**
  * @brief This function handles Pendable request for system service.
  */
void PendSV_Handler(void)
{
 80002f2:	b480      	push	{r7}
 80002f4:	af00      	add	r7, sp, #0

  /* USER CODE END PendSV_IRQn 0 */
  /* USER CODE BEGIN PendSV_IRQn 1 */

  /* USER CODE END PendSV_IRQn 1 */
}
 80002f6:	bf00      	nop
 80002f8:	46bd      	mov	sp, r7
 80002fa:	f85d 7b04 	ldr.w	r7, [sp], #4
 80002fe:	4770      	bx	lr

08000300 <SysTick_Handler>:

/**
  * @brief This function handles System tick timer.
  */
void SysTick_Handler(void)
{
 8000300:	b580      	push	{r7, lr}
 8000302:	af00      	add	r7, sp, #0
  /* USER CODE BEGIN SysTick_IRQn 0 */

  /* USER CODE END SysTick_IRQn 0 */
  HAL_IncTick();
 8000304:	f000 f8b2 	bl	800046c <HAL_IncTick>
  /* USER CODE BEGIN SysTick_IRQn 1 */

  /* USER CODE END SysTick_IRQn 1 */
}
 8000308:	bf00      	nop
 800030a:	bd80      	pop	{r7, pc}

0800030c <SystemInit>:
  * @brief  Setup the microcontroller system.
  * @retval None
  */

void SystemInit(void)
{
 800030c:	b480      	push	{r7}
 800030e:	af00      	add	r7, sp, #0
  SCB->VTOR = VECT_TAB_BASE_ADDRESS | VECT_TAB_OFFSET;
#endif

  /* FPU settings ------------------------------------------------------------*/
#if (__FPU_PRESENT == 1) && (__FPU_USED == 1)
  SCB->CPACR |= ((3UL << 20U)|(3UL << 22U));  /* set CP10 and CP11 Full Access */
 8000310:	4b15      	ldr	r3, [pc, #84]	; (8000368 <SystemInit+0x5c>)
 8000312:	f8d3 3088 	ldr.w	r3, [r3, #136]	; 0x88
 8000316:	4a14      	ldr	r2, [pc, #80]	; (8000368 <SystemInit+0x5c>)
 8000318:	f443 0370 	orr.w	r3, r3, #15728640	; 0xf00000
 800031c:	f8c2 3088 	str.w	r3, [r2, #136]	; 0x88
#endif

  /* Reset the RCC clock configuration to the default reset state ------------*/
  /* Set MSION bit */
  RCC->CR |= RCC_CR_MSION;
 8000320:	4b12      	ldr	r3, [pc, #72]	; (800036c <SystemInit+0x60>)
 8000322:	681b      	ldr	r3, [r3, #0]
 8000324:	4a11      	ldr	r2, [pc, #68]	; (800036c <SystemInit+0x60>)
 8000326:	f043 0301 	orr.w	r3, r3, #1
 800032a:	6013      	str	r3, [r2, #0]

  /* Reset CFGR register */
  RCC->CFGR = 0x00000000U;
 800032c:	4b0f      	ldr	r3, [pc, #60]	; (800036c <SystemInit+0x60>)
 800032e:	2200      	movs	r2, #0
 8000330:	609a      	str	r2, [r3, #8]

  /* Reset HSEON, CSSON , HSION, and PLLON bits */
  RCC->CR &= 0xEAF6FFFFU;
 8000332:	4b0e      	ldr	r3, [pc, #56]	; (800036c <SystemInit+0x60>)
 8000334:	681b      	ldr	r3, [r3, #0]
 8000336:	4a0d      	ldr	r2, [pc, #52]	; (800036c <SystemInit+0x60>)
 8000338:	f023 53a8 	bic.w	r3, r3, #352321536	; 0x15000000
 800033c:	f423 2310 	bic.w	r3, r3, #589824	; 0x90000
 8000340:	6013      	str	r3, [r2, #0]

  /* Reset PLLCFGR register */
  RCC->PLLCFGR = 0x00001000U;
 8000342:	4b0a      	ldr	r3, [pc, #40]	; (800036c <SystemInit+0x60>)
 8000344:	f44f 5280 	mov.w	r2, #4096	; 0x1000
 8000348:	60da      	str	r2, [r3, #12]

  /* Reset HSEBYP bit */
  RCC->CR &= 0xFFFBFFFFU;
 800034a:	4b08      	ldr	r3, [pc, #32]	; (800036c <SystemInit+0x60>)
 800034c:	681b      	ldr	r3, [r3, #0]
 800034e:	4a07      	ldr	r2, [pc, #28]	; (800036c <SystemInit+0x60>)
 8000350:	f423 2380 	bic.w	r3, r3, #262144	; 0x40000
 8000354:	6013      	str	r3, [r2, #0]

  /* Disable all interrupts */
  RCC->CIER = 0x00000000U;
 8000356:	4b05      	ldr	r3, [pc, #20]	; (800036c <SystemInit+0x60>)
 8000358:	2200      	movs	r2, #0
 800035a:	619a      	str	r2, [r3, #24]
}
 800035c:	bf00      	nop
 800035e:	46bd      	mov	sp, r7
 8000360:	f85d 7b04 	ldr.w	r7, [sp], #4
 8000364:	4770      	bx	lr
 8000366:	bf00      	nop
 8000368:	e000ed00 	.word	0xe000ed00
 800036c:	40021000 	.word	0x40021000

08000370 <Reset_Handler>:

    .section	.text.Reset_Handler
	.weak	Reset_Handler
	.type	Reset_Handler, %function
Reset_Handler:
  ldr   sp, =_estack    /* Set stack pointer */
 8000370:	f8df d034 	ldr.w	sp, [pc, #52]	; 80003a8 <LoopForever+0x2>

/* Call the clock system initialization function.*/
    bl  SystemInit
 8000374:	f7ff ffca 	bl	800030c <SystemInit>

/* Copy the data segment initializers from flash to SRAM */
  movs	r1, #0
 8000378:	2100      	movs	r1, #0
  b	LoopCopyDataInit
 800037a:	e003      	b.n	8000384 <LoopCopyDataInit>

0800037c <CopyDataInit>:

CopyDataInit:
	ldr	r3, =_sidata
 800037c:	4b0b      	ldr	r3, [pc, #44]	; (80003ac <LoopForever+0x6>)
	ldr	r3, [r3, r1]
 800037e:	585b      	ldr	r3, [r3, r1]
	str	r3, [r0, r1]
 8000380:	5043      	str	r3, [r0, r1]
	adds	r1, r1, #4
 8000382:	3104      	adds	r1, #4

08000384 <LoopCopyDataInit>:

LoopCopyDataInit:
	ldr	r0, =_sdata
 8000384:	480a      	ldr	r0, [pc, #40]	; (80003b0 <LoopForever+0xa>)
	ldr	r3, =_edata
 8000386:	4b0b      	ldr	r3, [pc, #44]	; (80003b4 <LoopForever+0xe>)
	adds	r2, r0, r1
 8000388:	1842      	adds	r2, r0, r1
	cmp	r2, r3
 800038a:	429a      	cmp	r2, r3
	bcc	CopyDataInit
 800038c:	d3f6      	bcc.n	800037c <CopyDataInit>
	ldr	r2, =_sbss
 800038e:	4a0a      	ldr	r2, [pc, #40]	; (80003b8 <LoopForever+0x12>)
	b	LoopFillZerobss
 8000390:	e002      	b.n	8000398 <LoopFillZerobss>

08000392 <FillZerobss>:
/* Zero fill the bss segment. */
FillZerobss:
	movs	r3, #0
 8000392:	2300      	movs	r3, #0
	str	r3, [r2], #4
 8000394:	f842 3b04 	str.w	r3, [r2], #4

08000398 <LoopFillZerobss>:

LoopFillZerobss:
	ldr	r3, = _ebss
 8000398:	4b08      	ldr	r3, [pc, #32]	; (80003bc <LoopForever+0x16>)
	cmp	r2, r3
 800039a:	429a      	cmp	r2, r3
	bcc	FillZerobss
 800039c:	d3f9      	bcc.n	8000392 <FillZerobss>

/* Call static constructors */
    bl __libc_init_array
 800039e:	f000 ffbd 	bl	800131c <__libc_init_array>
/* Call the application's entry point.*/
	bl	main
 80003a2:	f7ff ff13 	bl	80001cc <main>

080003a6 <LoopForever>:

LoopForever:
    b LoopForever
 80003a6:	e7fe      	b.n	80003a6 <LoopForever>
  ldr   sp, =_estack    /* Set stack pointer */
 80003a8:	2000c000 	.word	0x2000c000
	ldr	r3, =_sidata
 80003ac:	080013d4 	.word	0x080013d4
	ldr	r0, =_sdata
 80003b0:	20000000 	.word	0x20000000
	ldr	r3, =_edata
 80003b4:	2000000c 	.word	0x2000000c
	ldr	r2, =_sbss
 80003b8:	2000000c 	.word	0x2000000c
	ldr	r3, = _ebss
 80003bc:	2000002c 	.word	0x2000002c

080003c0 <ADC1_IRQHandler>:
 * @retval : None
*/
    .section	.text.Default_Handler,"ax",%progbits
Default_Handler:
Infinite_Loop:
	b	Infinite_Loop
 80003c0:	e7fe      	b.n	80003c0 <ADC1_IRQHandler>

080003c2 <HAL_Init>:
  *         each 1ms in the SysTick_Handler() interrupt handler.
  *
  * @retval HAL status
  */
HAL_StatusTypeDef HAL_Init(void)
{
 80003c2:	b580      	push	{r7, lr}
 80003c4:	b082      	sub	sp, #8
 80003c6:	af00      	add	r7, sp, #0
  HAL_StatusTypeDef  status = HAL_OK;
 80003c8:	2300      	movs	r3, #0
 80003ca:	71fb      	strb	r3, [r7, #7]
#if (PREFETCH_ENABLE != 0)
  __HAL_FLASH_PREFETCH_BUFFER_ENABLE();
#endif /* PREFETCH_ENABLE */

  /* Set Interrupt Group Priority */
  HAL_NVIC_SetPriorityGrouping(NVIC_PRIORITYGROUP_4);
 80003cc:	2003      	movs	r0, #3
 80003ce:	f000 f91f 	bl	8000610 <HAL_NVIC_SetPriorityGrouping>

  /* Use SysTick as time base source and configure 1ms tick (default clock after Reset is MSI) */
  if (HAL_InitTick(TICK_INT_PRIORITY) != HAL_OK)
 80003d2:	200f      	movs	r0, #15
 80003d4:	f000 f80e 	bl	80003f4 <HAL_InitTick>
 80003d8:	4603      	mov	r3, r0
 80003da:	2b00      	cmp	r3, #0
 80003dc:	d002      	beq.n	80003e4 <HAL_Init+0x22>
  {
    status = HAL_ERROR;
 80003de:	2301      	movs	r3, #1
 80003e0:	71fb      	strb	r3, [r7, #7]
 80003e2:	e001      	b.n	80003e8 <HAL_Init+0x26>
  }
  else
  {
    /* Init the low level hardware */
    HAL_MspInit();
 80003e4:	f7ff ff44 	bl	8000270 <HAL_MspInit>
  }

  /* Return function status */
  return status;
 80003e8:	79fb      	ldrb	r3, [r7, #7]
}
 80003ea:	4618      	mov	r0, r3
 80003ec:	3708      	adds	r7, #8
 80003ee:	46bd      	mov	sp, r7
 80003f0:	bd80      	pop	{r7, pc}
	...

080003f4 <HAL_InitTick>:
  *       implementation  in user file.
  * @param TickPriority  Tick interrupt priority.
  * @retval HAL status
  */
__weak HAL_StatusTypeDef HAL_InitTick(uint32_t TickPriority)
{
 80003f4:	b580      	push	{r7, lr}
 80003f6:	b084      	sub	sp, #16
 80003f8:	af00      	add	r7, sp, #0
 80003fa:	6078      	str	r0, [r7, #4]
  HAL_StatusTypeDef  status = HAL_OK;
 80003fc:	2300      	movs	r3, #0
 80003fe:	73fb      	strb	r3, [r7, #15]

  /* Check uwTickFreq for MisraC 2012 (even if uwTickFreq is a enum type that doesn't take the value zero)*/
  if ((uint32_t)uwTickFreq != 0U)
 8000400:	4b17      	ldr	r3, [pc, #92]	; (8000460 <HAL_InitTick+0x6c>)
 8000402:	781b      	ldrb	r3, [r3, #0]
 8000404:	2b00      	cmp	r3, #0
 8000406:	d023      	beq.n	8000450 <HAL_InitTick+0x5c>
  {
    /*Configure the SysTick to have interrupt in 1ms time basis*/
    if (HAL_SYSTICK_Config(SystemCoreClock / (1000U / (uint32_t)uwTickFreq)) == 0U)
 8000408:	4b16      	ldr	r3, [pc, #88]	; (8000464 <HAL_InitTick+0x70>)
 800040a:	681a      	ldr	r2, [r3, #0]
 800040c:	4b14      	ldr	r3, [pc, #80]	; (8000460 <HAL_InitTick+0x6c>)
 800040e:	781b      	ldrb	r3, [r3, #0]
 8000410:	4619      	mov	r1, r3
 8000412:	f44f 737a 	mov.w	r3, #1000	; 0x3e8
 8000416:	fbb3 f3f1 	udiv	r3, r3, r1
 800041a:	fbb2 f3f3 	udiv	r3, r2, r3
 800041e:	4618      	mov	r0, r3
 8000420:	f000 f91d 	bl	800065e <HAL_SYSTICK_Config>
 8000424:	4603      	mov	r3, r0
 8000426:	2b00      	cmp	r3, #0
 8000428:	d10f      	bne.n	800044a <HAL_InitTick+0x56>
    {
      /* Configure the SysTick IRQ priority */
      if (TickPriority < (1UL << __NVIC_PRIO_BITS))
 800042a:	687b      	ldr	r3, [r7, #4]
 800042c:	2b0f      	cmp	r3, #15
 800042e:	d809      	bhi.n	8000444 <HAL_InitTick+0x50>
      {
        HAL_NVIC_SetPriority(SysTick_IRQn, TickPriority, 0U);
 8000430:	2200      	movs	r2, #0
 8000432:	6879      	ldr	r1, [r7, #4]
 8000434:	f04f 30ff 	mov.w	r0, #4294967295
 8000438:	f000 f8f5 	bl	8000626 <HAL_NVIC_SetPriority>
        uwTickPrio = TickPriority;
 800043c:	4a0a      	ldr	r2, [pc, #40]	; (8000468 <HAL_InitTick+0x74>)
 800043e:	687b      	ldr	r3, [r7, #4]
 8000440:	6013      	str	r3, [r2, #0]
 8000442:	e007      	b.n	8000454 <HAL_InitTick+0x60>
      }
      else
      {
        status = HAL_ERROR;
 8000444:	2301      	movs	r3, #1
 8000446:	73fb      	strb	r3, [r7, #15]
 8000448:	e004      	b.n	8000454 <HAL_InitTick+0x60>
      }
    }
    else
    {
      status = HAL_ERROR;
 800044a:	2301      	movs	r3, #1
 800044c:	73fb      	strb	r3, [r7, #15]
 800044e:	e001      	b.n	8000454 <HAL_InitTick+0x60>
    }
  }
  else
  {
    status = HAL_ERROR;
 8000450:	2301      	movs	r3, #1
 8000452:	73fb      	strb	r3, [r7, #15]
  }

  /* Return function status */
  return status;
 8000454:	7bfb      	ldrb	r3, [r7, #15]
}
 8000456:	4618      	mov	r0, r3
 8000458:	3710      	adds	r7, #16
 800045a:	46bd      	mov	sp, r7
 800045c:	bd80      	pop	{r7, pc}
 800045e:	bf00      	nop
 8000460:	20000008 	.word	0x20000008
 8000464:	20000000 	.word	0x20000000
 8000468:	20000004 	.word	0x20000004

0800046c <HAL_IncTick>:
 * @note This function is declared as __weak to be overwritten in case of other
  *      implementations in user file.
  * @retval None
  */
__weak void HAL_IncTick(void)
{
 800046c:	b480      	push	{r7}
 800046e:	af00      	add	r7, sp, #0
  uwTick += (uint32_t)uwTickFreq;
 8000470:	4b06      	ldr	r3, [pc, #24]	; (800048c <HAL_IncTick+0x20>)
 8000472:	781b      	ldrb	r3, [r3, #0]
 8000474:	461a      	mov	r2, r3
 8000476:	4b06      	ldr	r3, [pc, #24]	; (8000490 <HAL_IncTick+0x24>)
 8000478:	681b      	ldr	r3, [r3, #0]
 800047a:	4413      	add	r3, r2
 800047c:	4a04      	ldr	r2, [pc, #16]	; (8000490 <HAL_IncTick+0x24>)
 800047e:	6013      	str	r3, [r2, #0]
}
 8000480:	bf00      	nop
 8000482:	46bd      	mov	sp, r7
 8000484:	f85d 7b04 	ldr.w	r7, [sp], #4
 8000488:	4770      	bx	lr
 800048a:	bf00      	nop
 800048c:	20000008 	.word	0x20000008
 8000490:	20000028 	.word	0x20000028

08000494 <HAL_GetTick>:
  * @note This function is declared as __weak to be overwritten in case of other
  *       implementations in user file.
  * @retval tick value
  */
__weak uint32_t HAL_GetTick(void)
{
 8000494:	b480      	push	{r7}
 8000496:	af00      	add	r7, sp, #0
  return uwTick;
 8000498:	4b03      	ldr	r3, [pc, #12]	; (80004a8 <HAL_GetTick+0x14>)
 800049a:	681b      	ldr	r3, [r3, #0]
}
 800049c:	4618      	mov	r0, r3
 800049e:	46bd      	mov	sp, r7
 80004a0:	f85d 7b04 	ldr.w	r7, [sp], #4
 80004a4:	4770      	bx	lr
 80004a6:	bf00      	nop
 80004a8:	20000028 	.word	0x20000028

080004ac <__NVIC_SetPriorityGrouping>:
           In case of a conflict between priority grouping and available
           priority bits (__NVIC_PRIO_BITS), the smallest possible priority group is set.
  \param [in]      PriorityGroup  Priority grouping field.
 */
__STATIC_INLINE void __NVIC_SetPriorityGrouping(uint32_t PriorityGroup)
{
 80004ac:	b480      	push	{r7}
 80004ae:	b085      	sub	sp, #20
 80004b0:	af00      	add	r7, sp, #0
 80004b2:	6078      	str	r0, [r7, #4]
  uint32_t reg_value;
  uint32_t PriorityGroupTmp = (PriorityGroup & (uint32_t)0x07UL);             /* only values 0..7 are used          */
 80004b4:	687b      	ldr	r3, [r7, #4]
 80004b6:	f003 0307 	and.w	r3, r3, #7
 80004ba:	60fb      	str	r3, [r7, #12]

  reg_value  =  SCB->AIRCR;                                                   /* read old register configuration    */
 80004bc:	4b0c      	ldr	r3, [pc, #48]	; (80004f0 <__NVIC_SetPriorityGrouping+0x44>)
 80004be:	68db      	ldr	r3, [r3, #12]
 80004c0:	60bb      	str	r3, [r7, #8]
  reg_value &= ~((uint32_t)(SCB_AIRCR_VECTKEY_Msk | SCB_AIRCR_PRIGROUP_Msk)); /* clear bits to change               */
 80004c2:	68ba      	ldr	r2, [r7, #8]
 80004c4:	f64f 03ff 	movw	r3, #63743	; 0xf8ff
 80004c8:	4013      	ands	r3, r2
 80004ca:	60bb      	str	r3, [r7, #8]
  reg_value  =  (reg_value                                   |
                ((uint32_t)0x5FAUL << SCB_AIRCR_VECTKEY_Pos) |
                (PriorityGroupTmp << SCB_AIRCR_PRIGROUP_Pos)  );              /* Insert write key and priority group */
 80004cc:	68fb      	ldr	r3, [r7, #12]
 80004ce:	021a      	lsls	r2, r3, #8
                ((uint32_t)0x5FAUL << SCB_AIRCR_VECTKEY_Pos) |
 80004d0:	68bb      	ldr	r3, [r7, #8]
 80004d2:	4313      	orrs	r3, r2
  reg_value  =  (reg_value                                   |
 80004d4:	f043 63bf 	orr.w	r3, r3, #100139008	; 0x5f80000
 80004d8:	f443 3300 	orr.w	r3, r3, #131072	; 0x20000
 80004dc:	60bb      	str	r3, [r7, #8]
  SCB->AIRCR =  reg_value;
 80004de:	4a04      	ldr	r2, [pc, #16]	; (80004f0 <__NVIC_SetPriorityGrouping+0x44>)
 80004e0:	68bb      	ldr	r3, [r7, #8]
 80004e2:	60d3      	str	r3, [r2, #12]
}
 80004e4:	bf00      	nop
 80004e6:	3714      	adds	r7, #20
 80004e8:	46bd      	mov	sp, r7
 80004ea:	f85d 7b04 	ldr.w	r7, [sp], #4
 80004ee:	4770      	bx	lr
 80004f0:	e000ed00 	.word	0xe000ed00

080004f4 <__NVIC_GetPriorityGrouping>:
  \brief   Get Priority Grouping
  \details Reads the priority grouping field from the NVIC Interrupt Controller.
  \return                Priority grouping field (SCB->AIRCR [10:8] PRIGROUP field).
 */
__STATIC_INLINE uint32_t __NVIC_GetPriorityGrouping(void)
{
 80004f4:	b480      	push	{r7}
 80004f6:	af00      	add	r7, sp, #0
  return ((uint32_t)((SCB->AIRCR & SCB_AIRCR_PRIGROUP_Msk) >> SCB_AIRCR_PRIGROUP_Pos));
 80004f8:	4b04      	ldr	r3, [pc, #16]	; (800050c <__NVIC_GetPriorityGrouping+0x18>)
 80004fa:	68db      	ldr	r3, [r3, #12]
 80004fc:	0a1b      	lsrs	r3, r3, #8
 80004fe:	f003 0307 	and.w	r3, r3, #7
}
 8000502:	4618      	mov	r0, r3
 8000504:	46bd      	mov	sp, r7
 8000506:	f85d 7b04 	ldr.w	r7, [sp], #4
 800050a:	4770      	bx	lr
 800050c:	e000ed00 	.word	0xe000ed00

08000510 <__NVIC_SetPriority>:
  \param [in]      IRQn  Interrupt number.
  \param [in]  priority  Priority to set.
  \note    The priority cannot be set for every processor exception.
 */
__STATIC_INLINE void __NVIC_SetPriority(IRQn_Type IRQn, uint32_t priority)
{
 8000510:	b480      	push	{r7}
 8000512:	b083      	sub	sp, #12
 8000514:	af00      	add	r7, sp, #0
 8000516:	4603      	mov	r3, r0
 8000518:	6039      	str	r1, [r7, #0]
 800051a:	71fb      	strb	r3, [r7, #7]
  if ((int32_t)(IRQn) >= 0)
 800051c:	f997 3007 	ldrsb.w	r3, [r7, #7]
 8000520:	2b00      	cmp	r3, #0
 8000522:	db0a      	blt.n	800053a <__NVIC_SetPriority+0x2a>
  {
    NVIC->IP[((uint32_t)IRQn)]               = (uint8_t)((priority << (8U - __NVIC_PRIO_BITS)) & (uint32_t)0xFFUL);
 8000524:	683b      	ldr	r3, [r7, #0]
 8000526:	b2da      	uxtb	r2, r3
 8000528:	490c      	ldr	r1, [pc, #48]	; (800055c <__NVIC_SetPriority+0x4c>)
 800052a:	f997 3007 	ldrsb.w	r3, [r7, #7]
 800052e:	0112      	lsls	r2, r2, #4
 8000530:	b2d2      	uxtb	r2, r2
 8000532:	440b      	add	r3, r1
 8000534:	f883 2300 	strb.w	r2, [r3, #768]	; 0x300
  }
  else
  {
    SCB->SHP[(((uint32_t)IRQn) & 0xFUL)-4UL] = (uint8_t)((priority << (8U - __NVIC_PRIO_BITS)) & (uint32_t)0xFFUL);
  }
}
 8000538:	e00a      	b.n	8000550 <__NVIC_SetPriority+0x40>
    SCB->SHP[(((uint32_t)IRQn) & 0xFUL)-4UL] = (uint8_t)((priority << (8U - __NVIC_PRIO_BITS)) & (uint32_t)0xFFUL);
 800053a:	683b      	ldr	r3, [r7, #0]
 800053c:	b2da      	uxtb	r2, r3
 800053e:	4908      	ldr	r1, [pc, #32]	; (8000560 <__NVIC_SetPriority+0x50>)
 8000540:	79fb      	ldrb	r3, [r7, #7]
 8000542:	f003 030f 	and.w	r3, r3, #15
 8000546:	3b04      	subs	r3, #4
 8000548:	0112      	lsls	r2, r2, #4
 800054a:	b2d2      	uxtb	r2, r2
 800054c:	440b      	add	r3, r1
 800054e:	761a      	strb	r2, [r3, #24]
}
 8000550:	bf00      	nop
 8000552:	370c      	adds	r7, #12
 8000554:	46bd      	mov	sp, r7
 8000556:	f85d 7b04 	ldr.w	r7, [sp], #4
 800055a:	4770      	bx	lr
 800055c:	e000e100 	.word	0xe000e100
 8000560:	e000ed00 	.word	0xe000ed00

08000564 <NVIC_EncodePriority>:
  \param [in]   PreemptPriority  Preemptive priority value (starting from 0).
  \param [in]       SubPriority  Subpriority value (starting from 0).
  \return                        Encoded priority. Value can be used in the function \ref NVIC_SetPriority().
 */
__STATIC_INLINE uint32_t NVIC_EncodePriority (uint32_t PriorityGroup, uint32_t PreemptPriority, uint32_t SubPriority)
{
 8000564:	b480      	push	{r7}
 8000566:	b089      	sub	sp, #36	; 0x24
 8000568:	af00      	add	r7, sp, #0
 800056a:	60f8      	str	r0, [r7, #12]
 800056c:	60b9      	str	r1, [r7, #8]
 800056e:	607a      	str	r2, [r7, #4]
  uint32_t PriorityGroupTmp = (PriorityGroup & (uint32_t)0x07UL);   /* only values 0..7 are used          */
 8000570:	68fb      	ldr	r3, [r7, #12]
 8000572:	f003 0307 	and.w	r3, r3, #7
 8000576:	61fb      	str	r3, [r7, #28]
  uint32_t PreemptPriorityBits;
  uint32_t SubPriorityBits;

  PreemptPriorityBits = ((7UL - PriorityGroupTmp) > (uint32_t)(__NVIC_PRIO_BITS)) ? (uint32_t)(__NVIC_PRIO_BITS) : (uint32_t)(7UL - PriorityGroupTmp);
 8000578:	69fb      	ldr	r3, [r7, #28]
 800057a:	f1c3 0307 	rsb	r3, r3, #7
 800057e:	2b04      	cmp	r3, #4
 8000580:	bf28      	it	cs
 8000582:	2304      	movcs	r3, #4
 8000584:	61bb      	str	r3, [r7, #24]
  SubPriorityBits     = ((PriorityGroupTmp + (uint32_t)(__NVIC_PRIO_BITS)) < (uint32_t)7UL) ? (uint32_t)0UL : (uint32_t)((PriorityGroupTmp - 7UL) + (uint32_t)(__NVIC_PRIO_BITS));
 8000586:	69fb      	ldr	r3, [r7, #28]
 8000588:	3304      	adds	r3, #4
 800058a:	2b06      	cmp	r3, #6
 800058c:	d902      	bls.n	8000594 <NVIC_EncodePriority+0x30>
 800058e:	69fb      	ldr	r3, [r7, #28]
 8000590:	3b03      	subs	r3, #3
 8000592:	e000      	b.n	8000596 <NVIC_EncodePriority+0x32>
 8000594:	2300      	movs	r3, #0
 8000596:	617b      	str	r3, [r7, #20]

  return (
           ((PreemptPriority & (uint32_t)((1UL << (PreemptPriorityBits)) - 1UL)) << SubPriorityBits) |
 8000598:	f04f 32ff 	mov.w	r2, #4294967295
 800059c:	69bb      	ldr	r3, [r7, #24]
 800059e:	fa02 f303 	lsl.w	r3, r2, r3
 80005a2:	43da      	mvns	r2, r3
 80005a4:	68bb      	ldr	r3, [r7, #8]
 80005a6:	401a      	ands	r2, r3
 80005a8:	697b      	ldr	r3, [r7, #20]
 80005aa:	409a      	lsls	r2, r3
           ((SubPriority     & (uint32_t)((1UL << (SubPriorityBits    )) - 1UL)))
 80005ac:	f04f 31ff 	mov.w	r1, #4294967295
 80005b0:	697b      	ldr	r3, [r7, #20]
 80005b2:	fa01 f303 	lsl.w	r3, r1, r3
 80005b6:	43d9      	mvns	r1, r3
 80005b8:	687b      	ldr	r3, [r7, #4]
 80005ba:	400b      	ands	r3, r1
           ((PreemptPriority & (uint32_t)((1UL << (PreemptPriorityBits)) - 1UL)) << SubPriorityBits) |
 80005bc:	4313      	orrs	r3, r2
         );
}
 80005be:	4618      	mov	r0, r3
 80005c0:	3724      	adds	r7, #36	; 0x24
 80005c2:	46bd      	mov	sp, r7
 80005c4:	f85d 7b04 	ldr.w	r7, [sp], #4
 80005c8:	4770      	bx	lr
	...

080005cc <SysTick_Config>:
  \note    When the variable <b>__Vendor_SysTickConfig</b> is set to 1, then the
           function <b>SysTick_Config</b> is not included. In this case, the file <b><i>device</i>.h</b>
           must contain a vendor-specific implementation of this function.
 */
__STATIC_INLINE uint32_t SysTick_Config(uint32_t ticks)
{
 80005cc:	b580      	push	{r7, lr}
 80005ce:	b082      	sub	sp, #8
 80005d0:	af00      	add	r7, sp, #0
 80005d2:	6078      	str	r0, [r7, #4]
  if ((ticks - 1UL) > SysTick_LOAD_RELOAD_Msk)
 80005d4:	687b      	ldr	r3, [r7, #4]
 80005d6:	3b01      	subs	r3, #1
 80005d8:	f1b3 7f80 	cmp.w	r3, #16777216	; 0x1000000
 80005dc:	d301      	bcc.n	80005e2 <SysTick_Config+0x16>
  {
    return (1UL);                                                   /* Reload value impossible */
 80005de:	2301      	movs	r3, #1
 80005e0:	e00f      	b.n	8000602 <SysTick_Config+0x36>
  }

  SysTick->LOAD  = (uint32_t)(ticks - 1UL);                         /* set reload register */
 80005e2:	4a0a      	ldr	r2, [pc, #40]	; (800060c <SysTick_Config+0x40>)
 80005e4:	687b      	ldr	r3, [r7, #4]
 80005e6:	3b01      	subs	r3, #1
 80005e8:	6053      	str	r3, [r2, #4]
  NVIC_SetPriority (SysTick_IRQn, (1UL << __NVIC_PRIO_BITS) - 1UL); /* set Priority for Systick Interrupt */
 80005ea:	210f      	movs	r1, #15
 80005ec:	f04f 30ff 	mov.w	r0, #4294967295
 80005f0:	f7ff ff8e 	bl	8000510 <__NVIC_SetPriority>
  SysTick->VAL   = 0UL;                                             /* Load the SysTick Counter Value */
 80005f4:	4b05      	ldr	r3, [pc, #20]	; (800060c <SysTick_Config+0x40>)
 80005f6:	2200      	movs	r2, #0
 80005f8:	609a      	str	r2, [r3, #8]
  SysTick->CTRL  = SysTick_CTRL_CLKSOURCE_Msk |
 80005fa:	4b04      	ldr	r3, [pc, #16]	; (800060c <SysTick_Config+0x40>)
 80005fc:	2207      	movs	r2, #7
 80005fe:	601a      	str	r2, [r3, #0]
                   SysTick_CTRL_TICKINT_Msk   |
                   SysTick_CTRL_ENABLE_Msk;                         /* Enable SysTick IRQ and SysTick Timer */
  return (0UL);                                                     /* Function successful */
 8000600:	2300      	movs	r3, #0
}
 8000602:	4618      	mov	r0, r3
 8000604:	3708      	adds	r7, #8
 8000606:	46bd      	mov	sp, r7
 8000608:	bd80      	pop	{r7, pc}
 800060a:	bf00      	nop
 800060c:	e000e010 	.word	0xe000e010

08000610 <HAL_NVIC_SetPriorityGrouping>:
  * @note   When the NVIC_PriorityGroup_0 is selected, IRQ pre-emption is no more possible.
  *         The pending IRQ priority will be managed only by the subpriority.
  * @retval None
  */
void HAL_NVIC_SetPriorityGrouping(uint32_t PriorityGroup)
{
 8000610:	b580      	push	{r7, lr}
 8000612:	b082      	sub	sp, #8
 8000614:	af00      	add	r7, sp, #0
 8000616:	6078      	str	r0, [r7, #4]
  /* Check the parameters */
  assert_param(IS_NVIC_PRIORITY_GROUP(PriorityGroup));

  /* Set the PRIGROUP[10:8] bits according to the PriorityGroup parameter value */
  NVIC_SetPriorityGrouping(PriorityGroup);
 8000618:	6878      	ldr	r0, [r7, #4]
 800061a:	f7ff ff47 	bl	80004ac <__NVIC_SetPriorityGrouping>
}
 800061e:	bf00      	nop
 8000620:	3708      	adds	r7, #8
 8000622:	46bd      	mov	sp, r7
 8000624:	bd80      	pop	{r7, pc}

08000626 <HAL_NVIC_SetPriority>:
  *         This parameter can be a value between 0 and 15
  *         A lower priority value indicates a higher priority.
  * @retval None
  */
void HAL_NVIC_SetPriority(IRQn_Type IRQn, uint32_t PreemptPriority, uint32_t SubPriority)
{
 8000626:	b580      	push	{r7, lr}
 8000628:	b086      	sub	sp, #24
 800062a:	af00      	add	r7, sp, #0
 800062c:	4603      	mov	r3, r0
 800062e:	60b9      	str	r1, [r7, #8]
 8000630:	607a      	str	r2, [r7, #4]
 8000632:	73fb      	strb	r3, [r7, #15]
  uint32_t prioritygroup = 0x00;
 8000634:	2300      	movs	r3, #0
 8000636:	617b      	str	r3, [r7, #20]

  /* Check the parameters */
  assert_param(IS_NVIC_SUB_PRIORITY(SubPriority));
  assert_param(IS_NVIC_PREEMPTION_PRIORITY(PreemptPriority));

  prioritygroup = NVIC_GetPriorityGrouping();
 8000638:	f7ff ff5c 	bl	80004f4 <__NVIC_GetPriorityGrouping>
 800063c:	6178      	str	r0, [r7, #20]

  NVIC_SetPriority(IRQn, NVIC_EncodePriority(prioritygroup, PreemptPriority, SubPriority));
 800063e:	687a      	ldr	r2, [r7, #4]
 8000640:	68b9      	ldr	r1, [r7, #8]
 8000642:	6978      	ldr	r0, [r7, #20]
 8000644:	f7ff ff8e 	bl	8000564 <NVIC_EncodePriority>
 8000648:	4602      	mov	r2, r0
 800064a:	f997 300f 	ldrsb.w	r3, [r7, #15]
 800064e:	4611      	mov	r1, r2
 8000650:	4618      	mov	r0, r3
 8000652:	f7ff ff5d 	bl	8000510 <__NVIC_SetPriority>
}
 8000656:	bf00      	nop
 8000658:	3718      	adds	r7, #24
 800065a:	46bd      	mov	sp, r7
 800065c:	bd80      	pop	{r7, pc}

0800065e <HAL_SYSTICK_Config>:
  * @param  TicksNumb: Specifies the ticks Number of ticks between two interrupts.
  * @retval status:  - 0  Function succeeded.
  *                  - 1  Function failed.
  */
uint32_t HAL_SYSTICK_Config(uint32_t TicksNumb)
{
 800065e:	b580      	push	{r7, lr}
 8000660:	b082      	sub	sp, #8
 8000662:	af00      	add	r7, sp, #0
 8000664:	6078      	str	r0, [r7, #4]
   return SysTick_Config(TicksNumb);
 8000666:	6878      	ldr	r0, [r7, #4]
 8000668:	f7ff ffb0 	bl	80005cc <SysTick_Config>
 800066c:	4603      	mov	r3, r0
}
 800066e:	4618      	mov	r0, r3
 8000670:	3708      	adds	r7, #8
 8000672:	46bd      	mov	sp, r7
 8000674:	bd80      	pop	{r7, pc}
	...

08000678 <HAL_PWREx_GetVoltageRange>:
  * @brief Return Voltage Scaling Range.
  * @retval VOS bit field (PWR_REGULATOR_VOLTAGE_SCALE1 or PWR_REGULATOR_VOLTAGE_SCALE2
  *         or PWR_REGULATOR_VOLTAGE_SCALE1_BOOST when applicable)
  */
uint32_t HAL_PWREx_GetVoltageRange(void)
{
 8000678:	b480      	push	{r7}
 800067a:	af00      	add	r7, sp, #0
    else
    {
      return PWR_REGULATOR_VOLTAGE_SCALE1_BOOST;
    }
#else
  return  (PWR->CR1 & PWR_CR1_VOS);
 800067c:	4b04      	ldr	r3, [pc, #16]	; (8000690 <HAL_PWREx_GetVoltageRange+0x18>)
 800067e:	681b      	ldr	r3, [r3, #0]
 8000680:	f403 63c0 	and.w	r3, r3, #1536	; 0x600
#endif
}
 8000684:	4618      	mov	r0, r3
 8000686:	46bd      	mov	sp, r7
 8000688:	f85d 7b04 	ldr.w	r7, [sp], #4
 800068c:	4770      	bx	lr
 800068e:	bf00      	nop
 8000690:	40007000 	.word	0x40007000

08000694 <HAL_PWREx_ControlVoltageScaling>:
  *        cleared before returning the status. If the flag is not cleared within
  *        50 microseconds, HAL_TIMEOUT status is reported.
  * @retval HAL Status
  */
HAL_StatusTypeDef HAL_PWREx_ControlVoltageScaling(uint32_t VoltageScaling)
{
 8000694:	b480      	push	{r7}
 8000696:	b085      	sub	sp, #20
 8000698:	af00      	add	r7, sp, #0
 800069a:	6078      	str	r0, [r7, #4]
  }

#else

  /* If Set Range 1 */
  if (VoltageScaling == PWR_REGULATOR_VOLTAGE_SCALE1)
 800069c:	687b      	ldr	r3, [r7, #4]
 800069e:	f5b3 7f00 	cmp.w	r3, #512	; 0x200
 80006a2:	d130      	bne.n	8000706 <HAL_PWREx_ControlVoltageScaling+0x72>
  {
    if (READ_BIT(PWR->CR1, PWR_CR1_VOS) != PWR_REGULATOR_VOLTAGE_SCALE1)
 80006a4:	4b23      	ldr	r3, [pc, #140]	; (8000734 <HAL_PWREx_ControlVoltageScaling+0xa0>)
 80006a6:	681b      	ldr	r3, [r3, #0]
 80006a8:	f403 63c0 	and.w	r3, r3, #1536	; 0x600
 80006ac:	f5b3 7f00 	cmp.w	r3, #512	; 0x200
 80006b0:	d038      	beq.n	8000724 <HAL_PWREx_ControlVoltageScaling+0x90>
    {
      /* Set Range 1 */
      MODIFY_REG(PWR->CR1, PWR_CR1_VOS, PWR_REGULATOR_VOLTAGE_SCALE1);
 80006b2:	4b20      	ldr	r3, [pc, #128]	; (8000734 <HAL_PWREx_ControlVoltageScaling+0xa0>)
 80006b4:	681b      	ldr	r3, [r3, #0]
 80006b6:	f423 63c0 	bic.w	r3, r3, #1536	; 0x600
 80006ba:	4a1e      	ldr	r2, [pc, #120]	; (8000734 <HAL_PWREx_ControlVoltageScaling+0xa0>)
 80006bc:	f443 7300 	orr.w	r3, r3, #512	; 0x200
 80006c0:	6013      	str	r3, [r2, #0]

      /* Wait until VOSF is cleared */
      wait_loop_index = ((PWR_FLAG_SETTING_DELAY_US * SystemCoreClock) / 1000000U) + 1U;
 80006c2:	4b1d      	ldr	r3, [pc, #116]	; (8000738 <HAL_PWREx_ControlVoltageScaling+0xa4>)
 80006c4:	681b      	ldr	r3, [r3, #0]
 80006c6:	2232      	movs	r2, #50	; 0x32
 80006c8:	fb02 f303 	mul.w	r3, r2, r3
 80006cc:	4a1b      	ldr	r2, [pc, #108]	; (800073c <HAL_PWREx_ControlVoltageScaling+0xa8>)
 80006ce:	fba2 2303 	umull	r2, r3, r2, r3
 80006d2:	0c9b      	lsrs	r3, r3, #18
 80006d4:	3301      	adds	r3, #1
 80006d6:	60fb      	str	r3, [r7, #12]
      while ((HAL_IS_BIT_SET(PWR->SR2, PWR_SR2_VOSF)) && (wait_loop_index != 0U))
 80006d8:	e002      	b.n	80006e0 <HAL_PWREx_ControlVoltageScaling+0x4c>
      {
        wait_loop_index--;
 80006da:	68fb      	ldr	r3, [r7, #12]
 80006dc:	3b01      	subs	r3, #1
 80006de:	60fb      	str	r3, [r7, #12]
      while ((HAL_IS_BIT_SET(PWR->SR2, PWR_SR2_VOSF)) && (wait_loop_index != 0U))
 80006e0:	4b14      	ldr	r3, [pc, #80]	; (8000734 <HAL_PWREx_ControlVoltageScaling+0xa0>)
 80006e2:	695b      	ldr	r3, [r3, #20]
 80006e4:	f403 6380 	and.w	r3, r3, #1024	; 0x400
 80006e8:	f5b3 6f80 	cmp.w	r3, #1024	; 0x400
 80006ec:	d102      	bne.n	80006f4 <HAL_PWREx_ControlVoltageScaling+0x60>
 80006ee:	68fb      	ldr	r3, [r7, #12]
 80006f0:	2b00      	cmp	r3, #0
 80006f2:	d1f2      	bne.n	80006da <HAL_PWREx_ControlVoltageScaling+0x46>
      }
      if (HAL_IS_BIT_SET(PWR->SR2, PWR_SR2_VOSF))
 80006f4:	4b0f      	ldr	r3, [pc, #60]	; (8000734 <HAL_PWREx_ControlVoltageScaling+0xa0>)
 80006f6:	695b      	ldr	r3, [r3, #20]
 80006f8:	f403 6380 	and.w	r3, r3, #1024	; 0x400
 80006fc:	f5b3 6f80 	cmp.w	r3, #1024	; 0x400
 8000700:	d110      	bne.n	8000724 <HAL_PWREx_ControlVoltageScaling+0x90>
      {
        return HAL_TIMEOUT;
 8000702:	2303      	movs	r3, #3
 8000704:	e00f      	b.n	8000726 <HAL_PWREx_ControlVoltageScaling+0x92>
      }
    }
  }
  else
  {
    if (READ_BIT(PWR->CR1, PWR_CR1_VOS) != PWR_REGULATOR_VOLTAGE_SCALE2)
 8000706:	4b0b      	ldr	r3, [pc, #44]	; (8000734 <HAL_PWREx_ControlVoltageScaling+0xa0>)
 8000708:	681b      	ldr	r3, [r3, #0]
 800070a:	f403 63c0 	and.w	r3, r3, #1536	; 0x600
 800070e:	f5b3 6f80 	cmp.w	r3, #1024	; 0x400
 8000712:	d007      	beq.n	8000724 <HAL_PWREx_ControlVoltageScaling+0x90>
    {
      /* Set Range 2 */
      MODIFY_REG(PWR->CR1, PWR_CR1_VOS, PWR_REGULATOR_VOLTAGE_SCALE2);
 8000714:	4b07      	ldr	r3, [pc, #28]	; (8000734 <HAL_PWREx_ControlVoltageScaling+0xa0>)
 8000716:	681b      	ldr	r3, [r3, #0]
 8000718:	f423 63c0 	bic.w	r3, r3, #1536	; 0x600
 800071c:	4a05      	ldr	r2, [pc, #20]	; (8000734 <HAL_PWREx_ControlVoltageScaling+0xa0>)
 800071e:	f443 6380 	orr.w	r3, r3, #1024	; 0x400
 8000722:	6013      	str	r3, [r2, #0]
      /* No need to wait for VOSF to be cleared for this transition */
    }
  }
#endif

  return HAL_OK;
 8000724:	2300      	movs	r3, #0
}
 8000726:	4618      	mov	r0, r3
 8000728:	3714      	adds	r7, #20
 800072a:	46bd      	mov	sp, r7
 800072c:	f85d 7b04 	ldr.w	r7, [sp], #4
 8000730:	4770      	bx	lr
 8000732:	bf00      	nop
 8000734:	40007000 	.word	0x40007000
 8000738:	20000000 	.word	0x20000000
 800073c:	431bde83 	.word	0x431bde83

08000740 <HAL_RCC_OscConfig>:
  *         supported by this macro. User should request a transition to HSE Off
  *         first and then HSE On or HSE Bypass.
  * @retval HAL status
  */
HAL_StatusTypeDef HAL_RCC_OscConfig(RCC_OscInitTypeDef  *RCC_OscInitStruct)
{
 8000740:	b580      	push	{r7, lr}
 8000742:	b088      	sub	sp, #32
 8000744:	af00      	add	r7, sp, #0
 8000746:	6078      	str	r0, [r7, #4]
  uint32_t tickstart;
  HAL_StatusTypeDef status;
  uint32_t sysclk_source, pll_config;

  /* Check Null pointer */
  if(RCC_OscInitStruct == NULL)
 8000748:	687b      	ldr	r3, [r7, #4]
 800074a:	2b00      	cmp	r3, #0
 800074c:	d102      	bne.n	8000754 <HAL_RCC_OscConfig+0x14>
  {
    return HAL_ERROR;
 800074e:	2301      	movs	r3, #1
 8000750:	f000 bc11 	b.w	8000f76 <HAL_RCC_OscConfig+0x836>
  }

  /* Check the parameters */
  assert_param(IS_RCC_OSCILLATORTYPE(RCC_OscInitStruct->OscillatorType));

  sysclk_source = __HAL_RCC_GET_SYSCLK_SOURCE();
 8000754:	4ba0      	ldr	r3, [pc, #640]	; (80009d8 <HAL_RCC_OscConfig+0x298>)
 8000756:	689b      	ldr	r3, [r3, #8]
 8000758:	f003 030c 	and.w	r3, r3, #12
 800075c:	61bb      	str	r3, [r7, #24]
  pll_config = __HAL_RCC_GET_PLL_OSCSOURCE();
 800075e:	4b9e      	ldr	r3, [pc, #632]	; (80009d8 <HAL_RCC_OscConfig+0x298>)
 8000760:	68db      	ldr	r3, [r3, #12]
 8000762:	f003 0303 	and.w	r3, r3, #3
 8000766:	617b      	str	r3, [r7, #20]

  /*----------------------------- MSI Configuration --------------------------*/
  if(((RCC_OscInitStruct->OscillatorType) & RCC_OSCILLATORTYPE_MSI) == RCC_OSCILLATORTYPE_MSI)
 8000768:	687b      	ldr	r3, [r7, #4]
 800076a:	681b      	ldr	r3, [r3, #0]
 800076c:	f003 0310 	and.w	r3, r3, #16
 8000770:	2b00      	cmp	r3, #0
 8000772:	f000 80e4 	beq.w	800093e <HAL_RCC_OscConfig+0x1fe>
    assert_param(IS_RCC_MSI(RCC_OscInitStruct->MSIState));
    assert_param(IS_RCC_MSICALIBRATION_VALUE(RCC_OscInitStruct->MSICalibrationValue));
    assert_param(IS_RCC_MSI_CLOCK_RANGE(RCC_OscInitStruct->MSIClockRange));

    /* Check if MSI is used as system clock or as PLL source when PLL is selected as system clock */
    if((sysclk_source == RCC_CFGR_SWS_MSI) ||
 8000776:	69bb      	ldr	r3, [r7, #24]
 8000778:	2b00      	cmp	r3, #0
 800077a:	d007      	beq.n	800078c <HAL_RCC_OscConfig+0x4c>
 800077c:	69bb      	ldr	r3, [r7, #24]
 800077e:	2b0c      	cmp	r3, #12
 8000780:	f040 808b 	bne.w	800089a <HAL_RCC_OscConfig+0x15a>
       ((sysclk_source == RCC_CFGR_SWS_PLL) && (pll_config == RCC_PLLSOURCE_MSI)))
 8000784:	697b      	ldr	r3, [r7, #20]
 8000786:	2b01      	cmp	r3, #1
 8000788:	f040 8087 	bne.w	800089a <HAL_RCC_OscConfig+0x15a>
    {
      if((READ_BIT(RCC->CR, RCC_CR_MSIRDY) != 0U) && (RCC_OscInitStruct->MSIState == RCC_MSI_OFF))
 800078c:	4b92      	ldr	r3, [pc, #584]	; (80009d8 <HAL_RCC_OscConfig+0x298>)
 800078e:	681b      	ldr	r3, [r3, #0]
 8000790:	f003 0302 	and.w	r3, r3, #2
 8000794:	2b00      	cmp	r3, #0
 8000796:	d005      	beq.n	80007a4 <HAL_RCC_OscConfig+0x64>
 8000798:	687b      	ldr	r3, [r7, #4]
 800079a:	699b      	ldr	r3, [r3, #24]
 800079c:	2b00      	cmp	r3, #0
 800079e:	d101      	bne.n	80007a4 <HAL_RCC_OscConfig+0x64>
      {
        return HAL_ERROR;
 80007a0:	2301      	movs	r3, #1
 80007a2:	e3e8      	b.n	8000f76 <HAL_RCC_OscConfig+0x836>
      else
      {
        /* To correctly read data from FLASH memory, the number of wait states (LATENCY)
           must be correctly programmed according to the frequency of the CPU clock
           (HCLK) and the supply voltage of the device. */
        if(RCC_OscInitStruct->MSIClockRange > __HAL_RCC_GET_MSI_RANGE())
 80007a4:	687b      	ldr	r3, [r7, #4]
 80007a6:	6a1a      	ldr	r2, [r3, #32]
 80007a8:	4b8b      	ldr	r3, [pc, #556]	; (80009d8 <HAL_RCC_OscConfig+0x298>)
 80007aa:	681b      	ldr	r3, [r3, #0]
 80007ac:	f003 0308 	and.w	r3, r3, #8
 80007b0:	2b00      	cmp	r3, #0
 80007b2:	d004      	beq.n	80007be <HAL_RCC_OscConfig+0x7e>
 80007b4:	4b88      	ldr	r3, [pc, #544]	; (80009d8 <HAL_RCC_OscConfig+0x298>)
 80007b6:	681b      	ldr	r3, [r3, #0]
 80007b8:	f003 03f0 	and.w	r3, r3, #240	; 0xf0
 80007bc:	e005      	b.n	80007ca <HAL_RCC_OscConfig+0x8a>
 80007be:	4b86      	ldr	r3, [pc, #536]	; (80009d8 <HAL_RCC_OscConfig+0x298>)
 80007c0:	f8d3 3094 	ldr.w	r3, [r3, #148]	; 0x94
 80007c4:	091b      	lsrs	r3, r3, #4
 80007c6:	f003 03f0 	and.w	r3, r3, #240	; 0xf0
 80007ca:	4293      	cmp	r3, r2
 80007cc:	d223      	bcs.n	8000816 <HAL_RCC_OscConfig+0xd6>
        {
          /* First increase number of wait states update if necessary */
          if(RCC_SetFlashLatencyFromMSIRange(RCC_OscInitStruct->MSIClockRange) != HAL_OK)
 80007ce:	687b      	ldr	r3, [r7, #4]
 80007d0:	6a1b      	ldr	r3, [r3, #32]
 80007d2:	4618      	mov	r0, r3
 80007d4:	f000 fd42 	bl	800125c <RCC_SetFlashLatencyFromMSIRange>
 80007d8:	4603      	mov	r3, r0
 80007da:	2b00      	cmp	r3, #0
 80007dc:	d001      	beq.n	80007e2 <HAL_RCC_OscConfig+0xa2>
          {
            return HAL_ERROR;
 80007de:	2301      	movs	r3, #1
 80007e0:	e3c9      	b.n	8000f76 <HAL_RCC_OscConfig+0x836>
          }

          /* Selects the Multiple Speed oscillator (MSI) clock range .*/
          __HAL_RCC_MSI_RANGE_CONFIG(RCC_OscInitStruct->MSIClockRange);
 80007e2:	4b7d      	ldr	r3, [pc, #500]	; (80009d8 <HAL_RCC_OscConfig+0x298>)
 80007e4:	681b      	ldr	r3, [r3, #0]
 80007e6:	4a7c      	ldr	r2, [pc, #496]	; (80009d8 <HAL_RCC_OscConfig+0x298>)
 80007e8:	f043 0308 	orr.w	r3, r3, #8
 80007ec:	6013      	str	r3, [r2, #0]
 80007ee:	4b7a      	ldr	r3, [pc, #488]	; (80009d8 <HAL_RCC_OscConfig+0x298>)
 80007f0:	681b      	ldr	r3, [r3, #0]
 80007f2:	f023 02f0 	bic.w	r2, r3, #240	; 0xf0
 80007f6:	687b      	ldr	r3, [r7, #4]
 80007f8:	6a1b      	ldr	r3, [r3, #32]
 80007fa:	4977      	ldr	r1, [pc, #476]	; (80009d8 <HAL_RCC_OscConfig+0x298>)
 80007fc:	4313      	orrs	r3, r2
 80007fe:	600b      	str	r3, [r1, #0]
          /* Adjusts the Multiple Speed oscillator (MSI) calibration value.*/
          __HAL_RCC_MSI_CALIBRATIONVALUE_ADJUST(RCC_OscInitStruct->MSICalibrationValue);
 8000800:	4b75      	ldr	r3, [pc, #468]	; (80009d8 <HAL_RCC_OscConfig+0x298>)
 8000802:	685b      	ldr	r3, [r3, #4]
 8000804:	f423 427f 	bic.w	r2, r3, #65280	; 0xff00
 8000808:	687b      	ldr	r3, [r7, #4]
 800080a:	69db      	ldr	r3, [r3, #28]
 800080c:	021b      	lsls	r3, r3, #8
 800080e:	4972      	ldr	r1, [pc, #456]	; (80009d8 <HAL_RCC_OscConfig+0x298>)
 8000810:	4313      	orrs	r3, r2
 8000812:	604b      	str	r3, [r1, #4]
 8000814:	e025      	b.n	8000862 <HAL_RCC_OscConfig+0x122>
        }
        else
        {
          /* Else, keep current flash latency while decreasing applies */
          /* Selects the Multiple Speed oscillator (MSI) clock range .*/
          __HAL_RCC_MSI_RANGE_CONFIG(RCC_OscInitStruct->MSIClockRange);
 8000816:	4b70      	ldr	r3, [pc, #448]	; (80009d8 <HAL_RCC_OscConfig+0x298>)
 8000818:	681b      	ldr	r3, [r3, #0]
 800081a:	4a6f      	ldr	r2, [pc, #444]	; (80009d8 <HAL_RCC_OscConfig+0x298>)
 800081c:	f043 0308 	orr.w	r3, r3, #8
 8000820:	6013      	str	r3, [r2, #0]
 8000822:	4b6d      	ldr	r3, [pc, #436]	; (80009d8 <HAL_RCC_OscConfig+0x298>)
 8000824:	681b      	ldr	r3, [r3, #0]
 8000826:	f023 02f0 	bic.w	r2, r3, #240	; 0xf0
 800082a:	687b      	ldr	r3, [r7, #4]
 800082c:	6a1b      	ldr	r3, [r3, #32]
 800082e:	496a      	ldr	r1, [pc, #424]	; (80009d8 <HAL_RCC_OscConfig+0x298>)
 8000830:	4313      	orrs	r3, r2
 8000832:	600b      	str	r3, [r1, #0]
          /* Adjusts the Multiple Speed oscillator (MSI) calibration value.*/
          __HAL_RCC_MSI_CALIBRATIONVALUE_ADJUST(RCC_OscInitStruct->MSICalibrationValue);
 8000834:	4b68      	ldr	r3, [pc, #416]	; (80009d8 <HAL_RCC_OscConfig+0x298>)
 8000836:	685b      	ldr	r3, [r3, #4]
 8000838:	f423 427f 	bic.w	r2, r3, #65280	; 0xff00
 800083c:	687b      	ldr	r3, [r7, #4]
 800083e:	69db      	ldr	r3, [r3, #28]
 8000840:	021b      	lsls	r3, r3, #8
 8000842:	4965      	ldr	r1, [pc, #404]	; (80009d8 <HAL_RCC_OscConfig+0x298>)
 8000844:	4313      	orrs	r3, r2
 8000846:	604b      	str	r3, [r1, #4]

          /* Decrease number of wait states update if necessary */
          /* Only possible when MSI is the System clock source  */
          if(sysclk_source == RCC_CFGR_SWS_MSI)
 8000848:	69bb      	ldr	r3, [r7, #24]
 800084a:	2b00      	cmp	r3, #0
 800084c:	d109      	bne.n	8000862 <HAL_RCC_OscConfig+0x122>
          {
            if(RCC_SetFlashLatencyFromMSIRange(RCC_OscInitStruct->MSIClockRange) != HAL_OK)
 800084e:	687b      	ldr	r3, [r7, #4]
 8000850:	6a1b      	ldr	r3, [r3, #32]
 8000852:	4618      	mov	r0, r3
 8000854:	f000 fd02 	bl	800125c <RCC_SetFlashLatencyFromMSIRange>
 8000858:	4603      	mov	r3, r0
 800085a:	2b00      	cmp	r3, #0
 800085c:	d001      	beq.n	8000862 <HAL_RCC_OscConfig+0x122>
            {
              return HAL_ERROR;
 800085e:	2301      	movs	r3, #1
 8000860:	e389      	b.n	8000f76 <HAL_RCC_OscConfig+0x836>
            }
          }
        }

        /* Update the SystemCoreClock global variable */
        SystemCoreClock = HAL_RCC_GetSysClockFreq() >> (AHBPrescTable[READ_BIT(RCC->CFGR, RCC_CFGR_HPRE) >> RCC_CFGR_HPRE_Pos] & 0x1FU);
 8000862:	f000 fc6f 	bl	8001144 <HAL_RCC_GetSysClockFreq>
 8000866:	4602      	mov	r2, r0
 8000868:	4b5b      	ldr	r3, [pc, #364]	; (80009d8 <HAL_RCC_OscConfig+0x298>)
 800086a:	689b      	ldr	r3, [r3, #8]
 800086c:	091b      	lsrs	r3, r3, #4
 800086e:	f003 030f 	and.w	r3, r3, #15
 8000872:	495a      	ldr	r1, [pc, #360]	; (80009dc <HAL_RCC_OscConfig+0x29c>)
 8000874:	5ccb      	ldrb	r3, [r1, r3]
 8000876:	f003 031f 	and.w	r3, r3, #31
 800087a:	fa22 f303 	lsr.w	r3, r2, r3
 800087e:	4a58      	ldr	r2, [pc, #352]	; (80009e0 <HAL_RCC_OscConfig+0x2a0>)
 8000880:	6013      	str	r3, [r2, #0]

        /* Configure the source of time base considering new system clocks settings*/
        status = HAL_InitTick(uwTickPrio);
 8000882:	4b58      	ldr	r3, [pc, #352]	; (80009e4 <HAL_RCC_OscConfig+0x2a4>)
 8000884:	681b      	ldr	r3, [r3, #0]
 8000886:	4618      	mov	r0, r3
 8000888:	f7ff fdb4 	bl	80003f4 <HAL_InitTick>
 800088c:	4603      	mov	r3, r0
 800088e:	73fb      	strb	r3, [r7, #15]
        if(status != HAL_OK)
 8000890:	7bfb      	ldrb	r3, [r7, #15]
 8000892:	2b00      	cmp	r3, #0
 8000894:	d052      	beq.n	800093c <HAL_RCC_OscConfig+0x1fc>
        {
          return status;
 8000896:	7bfb      	ldrb	r3, [r7, #15]
 8000898:	e36d      	b.n	8000f76 <HAL_RCC_OscConfig+0x836>
      }
    }
    else
    {
      /* Check the MSI State */
      if(RCC_OscInitStruct->MSIState != RCC_MSI_OFF)
 800089a:	687b      	ldr	r3, [r7, #4]
 800089c:	699b      	ldr	r3, [r3, #24]
 800089e:	2b00      	cmp	r3, #0
 80008a0:	d032      	beq.n	8000908 <HAL_RCC_OscConfig+0x1c8>
      {
        /* Enable the Internal High Speed oscillator (MSI). */
        __HAL_RCC_MSI_ENABLE();
 80008a2:	4b4d      	ldr	r3, [pc, #308]	; (80009d8 <HAL_RCC_OscConfig+0x298>)
 80008a4:	681b      	ldr	r3, [r3, #0]
 80008a6:	4a4c      	ldr	r2, [pc, #304]	; (80009d8 <HAL_RCC_OscConfig+0x298>)
 80008a8:	f043 0301 	orr.w	r3, r3, #1
 80008ac:	6013      	str	r3, [r2, #0]

        /* Get timeout */
        tickstart = HAL_GetTick();
 80008ae:	f7ff fdf1 	bl	8000494 <HAL_GetTick>
 80008b2:	6138      	str	r0, [r7, #16]

        /* Wait till MSI is ready */
        while(READ_BIT(RCC->CR, RCC_CR_MSIRDY) == 0U)
 80008b4:	e008      	b.n	80008c8 <HAL_RCC_OscConfig+0x188>
        {
          if((HAL_GetTick() - tickstart) > MSI_TIMEOUT_VALUE)
 80008b6:	f7ff fded 	bl	8000494 <HAL_GetTick>
 80008ba:	4602      	mov	r2, r0
 80008bc:	693b      	ldr	r3, [r7, #16]
 80008be:	1ad3      	subs	r3, r2, r3
 80008c0:	2b02      	cmp	r3, #2
 80008c2:	d901      	bls.n	80008c8 <HAL_RCC_OscConfig+0x188>
          {
            return HAL_TIMEOUT;
 80008c4:	2303      	movs	r3, #3
 80008c6:	e356      	b.n	8000f76 <HAL_RCC_OscConfig+0x836>
        while(READ_BIT(RCC->CR, RCC_CR_MSIRDY) == 0U)
 80008c8:	4b43      	ldr	r3, [pc, #268]	; (80009d8 <HAL_RCC_OscConfig+0x298>)
 80008ca:	681b      	ldr	r3, [r3, #0]
 80008cc:	f003 0302 	and.w	r3, r3, #2
 80008d0:	2b00      	cmp	r3, #0
 80008d2:	d0f0      	beq.n	80008b6 <HAL_RCC_OscConfig+0x176>
          }
        }
         /* Selects the Multiple Speed oscillator (MSI) clock range .*/
        __HAL_RCC_MSI_RANGE_CONFIG(RCC_OscInitStruct->MSIClockRange);
 80008d4:	4b40      	ldr	r3, [pc, #256]	; (80009d8 <HAL_RCC_OscConfig+0x298>)
 80008d6:	681b      	ldr	r3, [r3, #0]
 80008d8:	4a3f      	ldr	r2, [pc, #252]	; (80009d8 <HAL_RCC_OscConfig+0x298>)
 80008da:	f043 0308 	orr.w	r3, r3, #8
 80008de:	6013      	str	r3, [r2, #0]
 80008e0:	4b3d      	ldr	r3, [pc, #244]	; (80009d8 <HAL_RCC_OscConfig+0x298>)
 80008e2:	681b      	ldr	r3, [r3, #0]
 80008e4:	f023 02f0 	bic.w	r2, r3, #240	; 0xf0
 80008e8:	687b      	ldr	r3, [r7, #4]
 80008ea:	6a1b      	ldr	r3, [r3, #32]
 80008ec:	493a      	ldr	r1, [pc, #232]	; (80009d8 <HAL_RCC_OscConfig+0x298>)
 80008ee:	4313      	orrs	r3, r2
 80008f0:	600b      	str	r3, [r1, #0]
         /* Adjusts the Multiple Speed oscillator (MSI) calibration value.*/
        __HAL_RCC_MSI_CALIBRATIONVALUE_ADJUST(RCC_OscInitStruct->MSICalibrationValue);
 80008f2:	4b39      	ldr	r3, [pc, #228]	; (80009d8 <HAL_RCC_OscConfig+0x298>)
 80008f4:	685b      	ldr	r3, [r3, #4]
 80008f6:	f423 427f 	bic.w	r2, r3, #65280	; 0xff00
 80008fa:	687b      	ldr	r3, [r7, #4]
 80008fc:	69db      	ldr	r3, [r3, #28]
 80008fe:	021b      	lsls	r3, r3, #8
 8000900:	4935      	ldr	r1, [pc, #212]	; (80009d8 <HAL_RCC_OscConfig+0x298>)
 8000902:	4313      	orrs	r3, r2
 8000904:	604b      	str	r3, [r1, #4]
 8000906:	e01a      	b.n	800093e <HAL_RCC_OscConfig+0x1fe>

      }
      else
      {
        /* Disable the Internal High Speed oscillator (MSI). */
        __HAL_RCC_MSI_DISABLE();
 8000908:	4b33      	ldr	r3, [pc, #204]	; (80009d8 <HAL_RCC_OscConfig+0x298>)
 800090a:	681b      	ldr	r3, [r3, #0]
 800090c:	4a32      	ldr	r2, [pc, #200]	; (80009d8 <HAL_RCC_OscConfig+0x298>)
 800090e:	f023 0301 	bic.w	r3, r3, #1
 8000912:	6013      	str	r3, [r2, #0]

        /* Get timeout */
        tickstart = HAL_GetTick();
 8000914:	f7ff fdbe 	bl	8000494 <HAL_GetTick>
 8000918:	6138      	str	r0, [r7, #16]

        /* Wait till MSI is ready */
        while(READ_BIT(RCC->CR, RCC_CR_MSIRDY) != 0U)
 800091a:	e008      	b.n	800092e <HAL_RCC_OscConfig+0x1ee>
        {
          if((HAL_GetTick() - tickstart) > MSI_TIMEOUT_VALUE)
 800091c:	f7ff fdba 	bl	8000494 <HAL_GetTick>
 8000920:	4602      	mov	r2, r0
 8000922:	693b      	ldr	r3, [r7, #16]
 8000924:	1ad3      	subs	r3, r2, r3
 8000926:	2b02      	cmp	r3, #2
 8000928:	d901      	bls.n	800092e <HAL_RCC_OscConfig+0x1ee>
          {
            return HAL_TIMEOUT;
 800092a:	2303      	movs	r3, #3
 800092c:	e323      	b.n	8000f76 <HAL_RCC_OscConfig+0x836>
        while(READ_BIT(RCC->CR, RCC_CR_MSIRDY) != 0U)
 800092e:	4b2a      	ldr	r3, [pc, #168]	; (80009d8 <HAL_RCC_OscConfig+0x298>)
 8000930:	681b      	ldr	r3, [r3, #0]
 8000932:	f003 0302 	and.w	r3, r3, #2
 8000936:	2b00      	cmp	r3, #0
 8000938:	d1f0      	bne.n	800091c <HAL_RCC_OscConfig+0x1dc>
 800093a:	e000      	b.n	800093e <HAL_RCC_OscConfig+0x1fe>
      if((READ_BIT(RCC->CR, RCC_CR_MSIRDY) != 0U) && (RCC_OscInitStruct->MSIState == RCC_MSI_OFF))
 800093c:	bf00      	nop
        }
      }
    }
  }
  /*------------------------------- HSE Configuration ------------------------*/
  if(((RCC_OscInitStruct->OscillatorType) & RCC_OSCILLATORTYPE_HSE) == RCC_OSCILLATORTYPE_HSE)
 800093e:	687b      	ldr	r3, [r7, #4]
 8000940:	681b      	ldr	r3, [r3, #0]
 8000942:	f003 0301 	and.w	r3, r3, #1
 8000946:	2b00      	cmp	r3, #0
 8000948:	d073      	beq.n	8000a32 <HAL_RCC_OscConfig+0x2f2>
  {
    /* Check the parameters */
    assert_param(IS_RCC_HSE(RCC_OscInitStruct->HSEState));

    /* When the HSE is used as system clock or clock source for PLL in these cases it is not allowed to be disabled */
    if((sysclk_source == RCC_CFGR_SWS_HSE) ||
 800094a:	69bb      	ldr	r3, [r7, #24]
 800094c:	2b08      	cmp	r3, #8
 800094e:	d005      	beq.n	800095c <HAL_RCC_OscConfig+0x21c>
 8000950:	69bb      	ldr	r3, [r7, #24]
 8000952:	2b0c      	cmp	r3, #12
 8000954:	d10e      	bne.n	8000974 <HAL_RCC_OscConfig+0x234>
       ((sysclk_source == RCC_CFGR_SWS_PLL) && (pll_config == RCC_PLLSOURCE_HSE)))
 8000956:	697b      	ldr	r3, [r7, #20]
 8000958:	2b03      	cmp	r3, #3
 800095a:	d10b      	bne.n	8000974 <HAL_RCC_OscConfig+0x234>
    {
      if((READ_BIT(RCC->CR, RCC_CR_HSERDY) != 0U) && (RCC_OscInitStruct->HSEState == RCC_HSE_OFF))
 800095c:	4b1e      	ldr	r3, [pc, #120]	; (80009d8 <HAL_RCC_OscConfig+0x298>)
 800095e:	681b      	ldr	r3, [r3, #0]
 8000960:	f403 3300 	and.w	r3, r3, #131072	; 0x20000
 8000964:	2b00      	cmp	r3, #0
 8000966:	d063      	beq.n	8000a30 <HAL_RCC_OscConfig+0x2f0>
 8000968:	687b      	ldr	r3, [r7, #4]
 800096a:	685b      	ldr	r3, [r3, #4]
 800096c:	2b00      	cmp	r3, #0
 800096e:	d15f      	bne.n	8000a30 <HAL_RCC_OscConfig+0x2f0>
      {
        return HAL_ERROR;
 8000970:	2301      	movs	r3, #1
 8000972:	e300      	b.n	8000f76 <HAL_RCC_OscConfig+0x836>
      }
    }
    else
    {
      /* Set the new HSE configuration ---------------------------------------*/
      __HAL_RCC_HSE_CONFIG(RCC_OscInitStruct->HSEState);
 8000974:	687b      	ldr	r3, [r7, #4]
 8000976:	685b      	ldr	r3, [r3, #4]
 8000978:	f5b3 3f80 	cmp.w	r3, #65536	; 0x10000
 800097c:	d106      	bne.n	800098c <HAL_RCC_OscConfig+0x24c>
 800097e:	4b16      	ldr	r3, [pc, #88]	; (80009d8 <HAL_RCC_OscConfig+0x298>)
 8000980:	681b      	ldr	r3, [r3, #0]
 8000982:	4a15      	ldr	r2, [pc, #84]	; (80009d8 <HAL_RCC_OscConfig+0x298>)
 8000984:	f443 3380 	orr.w	r3, r3, #65536	; 0x10000
 8000988:	6013      	str	r3, [r2, #0]
 800098a:	e01d      	b.n	80009c8 <HAL_RCC_OscConfig+0x288>
 800098c:	687b      	ldr	r3, [r7, #4]
 800098e:	685b      	ldr	r3, [r3, #4]
 8000990:	f5b3 2fa0 	cmp.w	r3, #327680	; 0x50000
 8000994:	d10c      	bne.n	80009b0 <HAL_RCC_OscConfig+0x270>
 8000996:	4b10      	ldr	r3, [pc, #64]	; (80009d8 <HAL_RCC_OscConfig+0x298>)
 8000998:	681b      	ldr	r3, [r3, #0]
 800099a:	4a0f      	ldr	r2, [pc, #60]	; (80009d8 <HAL_RCC_OscConfig+0x298>)
 800099c:	f443 2380 	orr.w	r3, r3, #262144	; 0x40000
 80009a0:	6013      	str	r3, [r2, #0]
 80009a2:	4b0d      	ldr	r3, [pc, #52]	; (80009d8 <HAL_RCC_OscConfig+0x298>)
 80009a4:	681b      	ldr	r3, [r3, #0]
 80009a6:	4a0c      	ldr	r2, [pc, #48]	; (80009d8 <HAL_RCC_OscConfig+0x298>)
 80009a8:	f443 3380 	orr.w	r3, r3, #65536	; 0x10000
 80009ac:	6013      	str	r3, [r2, #0]
 80009ae:	e00b      	b.n	80009c8 <HAL_RCC_OscConfig+0x288>
 80009b0:	4b09      	ldr	r3, [pc, #36]	; (80009d8 <HAL_RCC_OscConfig+0x298>)
 80009b2:	681b      	ldr	r3, [r3, #0]
 80009b4:	4a08      	ldr	r2, [pc, #32]	; (80009d8 <HAL_RCC_OscConfig+0x298>)
 80009b6:	f423 3380 	bic.w	r3, r3, #65536	; 0x10000
 80009ba:	6013      	str	r3, [r2, #0]
 80009bc:	4b06      	ldr	r3, [pc, #24]	; (80009d8 <HAL_RCC_OscConfig+0x298>)
 80009be:	681b      	ldr	r3, [r3, #0]
 80009c0:	4a05      	ldr	r2, [pc, #20]	; (80009d8 <HAL_RCC_OscConfig+0x298>)
 80009c2:	f423 2380 	bic.w	r3, r3, #262144	; 0x40000
 80009c6:	6013      	str	r3, [r2, #0]

      /* Check the HSE State */
      if(RCC_OscInitStruct->HSEState != RCC_HSE_OFF)
 80009c8:	687b      	ldr	r3, [r7, #4]
 80009ca:	685b      	ldr	r3, [r3, #4]
 80009cc:	2b00      	cmp	r3, #0
 80009ce:	d01b      	beq.n	8000a08 <HAL_RCC_OscConfig+0x2c8>
      {
        /* Get Start Tick*/
        tickstart = HAL_GetTick();
 80009d0:	f7ff fd60 	bl	8000494 <HAL_GetTick>
 80009d4:	6138      	str	r0, [r7, #16]

        /* Wait till HSE is ready */
        while(READ_BIT(RCC->CR, RCC_CR_HSERDY) == 0U)
 80009d6:	e010      	b.n	80009fa <HAL_RCC_OscConfig+0x2ba>
 80009d8:	40021000 	.word	0x40021000
 80009dc:	0800138c 	.word	0x0800138c
 80009e0:	20000000 	.word	0x20000000
 80009e4:	20000004 	.word	0x20000004
        {
          if((HAL_GetTick() - tickstart) > HSE_TIMEOUT_VALUE)
 80009e8:	f7ff fd54 	bl	8000494 <HAL_GetTick>
 80009ec:	4602      	mov	r2, r0
 80009ee:	693b      	ldr	r3, [r7, #16]
 80009f0:	1ad3      	subs	r3, r2, r3
 80009f2:	2b64      	cmp	r3, #100	; 0x64
 80009f4:	d901      	bls.n	80009fa <HAL_RCC_OscConfig+0x2ba>
          {
            return HAL_TIMEOUT;
 80009f6:	2303      	movs	r3, #3
 80009f8:	e2bd      	b.n	8000f76 <HAL_RCC_OscConfig+0x836>
        while(READ_BIT(RCC->CR, RCC_CR_HSERDY) == 0U)
 80009fa:	4baf      	ldr	r3, [pc, #700]	; (8000cb8 <HAL_RCC_OscConfig+0x578>)
 80009fc:	681b      	ldr	r3, [r3, #0]
 80009fe:	f403 3300 	and.w	r3, r3, #131072	; 0x20000
 8000a02:	2b00      	cmp	r3, #0
 8000a04:	d0f0      	beq.n	80009e8 <HAL_RCC_OscConfig+0x2a8>
 8000a06:	e014      	b.n	8000a32 <HAL_RCC_OscConfig+0x2f2>
        }
      }
      else
      {
        /* Get Start Tick*/
        tickstart = HAL_GetTick();
 8000a08:	f7ff fd44 	bl	8000494 <HAL_GetTick>
 8000a0c:	6138      	str	r0, [r7, #16]

        /* Wait till HSE is disabled */
        while(READ_BIT(RCC->CR, RCC_CR_HSERDY) != 0U)
 8000a0e:	e008      	b.n	8000a22 <HAL_RCC_OscConfig+0x2e2>
        {
          if((HAL_GetTick() - tickstart) > HSE_TIMEOUT_VALUE)
 8000a10:	f7ff fd40 	bl	8000494 <HAL_GetTick>
 8000a14:	4602      	mov	r2, r0
 8000a16:	693b      	ldr	r3, [r7, #16]
 8000a18:	1ad3      	subs	r3, r2, r3
 8000a1a:	2b64      	cmp	r3, #100	; 0x64
 8000a1c:	d901      	bls.n	8000a22 <HAL_RCC_OscConfig+0x2e2>
          {
            return HAL_TIMEOUT;
 8000a1e:	2303      	movs	r3, #3
 8000a20:	e2a9      	b.n	8000f76 <HAL_RCC_OscConfig+0x836>
        while(READ_BIT(RCC->CR, RCC_CR_HSERDY) != 0U)
 8000a22:	4ba5      	ldr	r3, [pc, #660]	; (8000cb8 <HAL_RCC_OscConfig+0x578>)
 8000a24:	681b      	ldr	r3, [r3, #0]
 8000a26:	f403 3300 	and.w	r3, r3, #131072	; 0x20000
 8000a2a:	2b00      	cmp	r3, #0
 8000a2c:	d1f0      	bne.n	8000a10 <HAL_RCC_OscConfig+0x2d0>
 8000a2e:	e000      	b.n	8000a32 <HAL_RCC_OscConfig+0x2f2>
      if((READ_BIT(RCC->CR, RCC_CR_HSERDY) != 0U) && (RCC_OscInitStruct->HSEState == RCC_HSE_OFF))
 8000a30:	bf00      	nop
        }
      }
    }
  }
  /*----------------------------- HSI Configuration --------------------------*/
  if(((RCC_OscInitStruct->OscillatorType) & RCC_OSCILLATORTYPE_HSI) == RCC_OSCILLATORTYPE_HSI)
 8000a32:	687b      	ldr	r3, [r7, #4]
 8000a34:	681b      	ldr	r3, [r3, #0]
 8000a36:	f003 0302 	and.w	r3, r3, #2
 8000a3a:	2b00      	cmp	r3, #0
 8000a3c:	d060      	beq.n	8000b00 <HAL_RCC_OscConfig+0x3c0>
    /* Check the parameters */
    assert_param(IS_RCC_HSI(RCC_OscInitStruct->HSIState));
    assert_param(IS_RCC_HSI_CALIBRATION_VALUE(RCC_OscInitStruct->HSICalibrationValue));

    /* Check if HSI is used as system clock or as PLL source when PLL is selected as system clock */
    if((sysclk_source == RCC_CFGR_SWS_HSI) ||
 8000a3e:	69bb      	ldr	r3, [r7, #24]
 8000a40:	2b04      	cmp	r3, #4
 8000a42:	d005      	beq.n	8000a50 <HAL_RCC_OscConfig+0x310>
 8000a44:	69bb      	ldr	r3, [r7, #24]
 8000a46:	2b0c      	cmp	r3, #12
 8000a48:	d119      	bne.n	8000a7e <HAL_RCC_OscConfig+0x33e>
       ((sysclk_source == RCC_CFGR_SWS_PLL) && (pll_config == RCC_PLLSOURCE_HSI)))
 8000a4a:	697b      	ldr	r3, [r7, #20]
 8000a4c:	2b02      	cmp	r3, #2
 8000a4e:	d116      	bne.n	8000a7e <HAL_RCC_OscConfig+0x33e>
    {
      /* When HSI is used as system clock it will not be disabled */
      if((READ_BIT(RCC->CR, RCC_CR_HSIRDY) != 0U) && (RCC_OscInitStruct->HSIState == RCC_HSI_OFF))
 8000a50:	4b99      	ldr	r3, [pc, #612]	; (8000cb8 <HAL_RCC_OscConfig+0x578>)
 8000a52:	681b      	ldr	r3, [r3, #0]
 8000a54:	f403 6380 	and.w	r3, r3, #1024	; 0x400
 8000a58:	2b00      	cmp	r3, #0
 8000a5a:	d005      	beq.n	8000a68 <HAL_RCC_OscConfig+0x328>
 8000a5c:	687b      	ldr	r3, [r7, #4]
 8000a5e:	68db      	ldr	r3, [r3, #12]
 8000a60:	2b00      	cmp	r3, #0
 8000a62:	d101      	bne.n	8000a68 <HAL_RCC_OscConfig+0x328>
      {
        return HAL_ERROR;
 8000a64:	2301      	movs	r3, #1
 8000a66:	e286      	b.n	8000f76 <HAL_RCC_OscConfig+0x836>
      }
      /* Otherwise, just the calibration is allowed */
      else
      {
        /* Adjusts the Internal High Speed oscillator (HSI) calibration value.*/
        __HAL_RCC_HSI_CALIBRATIONVALUE_ADJUST(RCC_OscInitStruct->HSICalibrationValue);
 8000a68:	4b93      	ldr	r3, [pc, #588]	; (8000cb8 <HAL_RCC_OscConfig+0x578>)
 8000a6a:	685b      	ldr	r3, [r3, #4]
 8000a6c:	f023 52f8 	bic.w	r2, r3, #520093696	; 0x1f000000
 8000a70:	687b      	ldr	r3, [r7, #4]
 8000a72:	691b      	ldr	r3, [r3, #16]
 8000a74:	061b      	lsls	r3, r3, #24
 8000a76:	4990      	ldr	r1, [pc, #576]	; (8000cb8 <HAL_RCC_OscConfig+0x578>)
 8000a78:	4313      	orrs	r3, r2
 8000a7a:	604b      	str	r3, [r1, #4]
      if((READ_BIT(RCC->CR, RCC_CR_HSIRDY) != 0U) && (RCC_OscInitStruct->HSIState == RCC_HSI_OFF))
 8000a7c:	e040      	b.n	8000b00 <HAL_RCC_OscConfig+0x3c0>
      }
    }
    else
    {
      /* Check the HSI State */
      if(RCC_OscInitStruct->HSIState != RCC_HSI_OFF)
 8000a7e:	687b      	ldr	r3, [r7, #4]
 8000a80:	68db      	ldr	r3, [r3, #12]
 8000a82:	2b00      	cmp	r3, #0
 8000a84:	d023      	beq.n	8000ace <HAL_RCC_OscConfig+0x38e>
      {
        /* Enable the Internal High Speed oscillator (HSI). */
        __HAL_RCC_HSI_ENABLE();
 8000a86:	4b8c      	ldr	r3, [pc, #560]	; (8000cb8 <HAL_RCC_OscConfig+0x578>)
 8000a88:	681b      	ldr	r3, [r3, #0]
 8000a8a:	4a8b      	ldr	r2, [pc, #556]	; (8000cb8 <HAL_RCC_OscConfig+0x578>)
 8000a8c:	f443 7380 	orr.w	r3, r3, #256	; 0x100
 8000a90:	6013      	str	r3, [r2, #0]

        /* Get Start Tick*/
        tickstart = HAL_GetTick();
 8000a92:	f7ff fcff 	bl	8000494 <HAL_GetTick>
 8000a96:	6138      	str	r0, [r7, #16]

        /* Wait till HSI is ready */
        while(READ_BIT(RCC->CR, RCC_CR_HSIRDY) == 0U)
 8000a98:	e008      	b.n	8000aac <HAL_RCC_OscConfig+0x36c>
        {
          if((HAL_GetTick() - tickstart) > HSI_TIMEOUT_VALUE)
 8000a9a:	f7ff fcfb 	bl	8000494 <HAL_GetTick>
 8000a9e:	4602      	mov	r2, r0
 8000aa0:	693b      	ldr	r3, [r7, #16]
 8000aa2:	1ad3      	subs	r3, r2, r3
 8000aa4:	2b02      	cmp	r3, #2
 8000aa6:	d901      	bls.n	8000aac <HAL_RCC_OscConfig+0x36c>
          {
            return HAL_TIMEOUT;
 8000aa8:	2303      	movs	r3, #3
 8000aaa:	e264      	b.n	8000f76 <HAL_RCC_OscConfig+0x836>
        while(READ_BIT(RCC->CR, RCC_CR_HSIRDY) == 0U)
 8000aac:	4b82      	ldr	r3, [pc, #520]	; (8000cb8 <HAL_RCC_OscConfig+0x578>)
 8000aae:	681b      	ldr	r3, [r3, #0]
 8000ab0:	f403 6380 	and.w	r3, r3, #1024	; 0x400
 8000ab4:	2b00      	cmp	r3, #0
 8000ab6:	d0f0      	beq.n	8000a9a <HAL_RCC_OscConfig+0x35a>
          }
        }

        /* Adjusts the Internal High Speed oscillator (HSI) calibration value.*/
        __HAL_RCC_HSI_CALIBRATIONVALUE_ADJUST(RCC_OscInitStruct->HSICalibrationValue);
 8000ab8:	4b7f      	ldr	r3, [pc, #508]	; (8000cb8 <HAL_RCC_OscConfig+0x578>)
 8000aba:	685b      	ldr	r3, [r3, #4]
 8000abc:	f023 52f8 	bic.w	r2, r3, #520093696	; 0x1f000000
 8000ac0:	687b      	ldr	r3, [r7, #4]
 8000ac2:	691b      	ldr	r3, [r3, #16]
 8000ac4:	061b      	lsls	r3, r3, #24
 8000ac6:	497c      	ldr	r1, [pc, #496]	; (8000cb8 <HAL_RCC_OscConfig+0x578>)
 8000ac8:	4313      	orrs	r3, r2
 8000aca:	604b      	str	r3, [r1, #4]
 8000acc:	e018      	b.n	8000b00 <HAL_RCC_OscConfig+0x3c0>
      }
      else
      {
        /* Disable the Internal High Speed oscillator (HSI). */
        __HAL_RCC_HSI_DISABLE();
 8000ace:	4b7a      	ldr	r3, [pc, #488]	; (8000cb8 <HAL_RCC_OscConfig+0x578>)
 8000ad0:	681b      	ldr	r3, [r3, #0]
 8000ad2:	4a79      	ldr	r2, [pc, #484]	; (8000cb8 <HAL_RCC_OscConfig+0x578>)
 8000ad4:	f423 7380 	bic.w	r3, r3, #256	; 0x100
 8000ad8:	6013      	str	r3, [r2, #0]

        /* Get Start Tick*/
        tickstart = HAL_GetTick();
 8000ada:	f7ff fcdb 	bl	8000494 <HAL_GetTick>
 8000ade:	6138      	str	r0, [r7, #16]

        /* Wait till HSI is disabled */
        while(READ_BIT(RCC->CR, RCC_CR_HSIRDY) != 0U)
 8000ae0:	e008      	b.n	8000af4 <HAL_RCC_OscConfig+0x3b4>
        {
          if((HAL_GetTick() - tickstart) > HSI_TIMEOUT_VALUE)
 8000ae2:	f7ff fcd7 	bl	8000494 <HAL_GetTick>
 8000ae6:	4602      	mov	r2, r0
 8000ae8:	693b      	ldr	r3, [r7, #16]
 8000aea:	1ad3      	subs	r3, r2, r3
 8000aec:	2b02      	cmp	r3, #2
 8000aee:	d901      	bls.n	8000af4 <HAL_RCC_OscConfig+0x3b4>
          {
            return HAL_TIMEOUT;
 8000af0:	2303      	movs	r3, #3
 8000af2:	e240      	b.n	8000f76 <HAL_RCC_OscConfig+0x836>
        while(READ_BIT(RCC->CR, RCC_CR_HSIRDY) != 0U)
 8000af4:	4b70      	ldr	r3, [pc, #448]	; (8000cb8 <HAL_RCC_OscConfig+0x578>)
 8000af6:	681b      	ldr	r3, [r3, #0]
 8000af8:	f403 6380 	and.w	r3, r3, #1024	; 0x400
 8000afc:	2b00      	cmp	r3, #0
 8000afe:	d1f0      	bne.n	8000ae2 <HAL_RCC_OscConfig+0x3a2>
        }
      }
    }
  }
  /*------------------------------ LSI Configuration -------------------------*/
  if(((RCC_OscInitStruct->OscillatorType) & RCC_OSCILLATORTYPE_LSI) == RCC_OSCILLATORTYPE_LSI)
 8000b00:	687b      	ldr	r3, [r7, #4]
 8000b02:	681b      	ldr	r3, [r3, #0]
 8000b04:	f003 0308 	and.w	r3, r3, #8
 8000b08:	2b00      	cmp	r3, #0
 8000b0a:	d03c      	beq.n	8000b86 <HAL_RCC_OscConfig+0x446>
  {
    /* Check the parameters */
    assert_param(IS_RCC_LSI(RCC_OscInitStruct->LSIState));

    /* Check the LSI State */
    if(RCC_OscInitStruct->LSIState != RCC_LSI_OFF)
 8000b0c:	687b      	ldr	r3, [r7, #4]
 8000b0e:	695b      	ldr	r3, [r3, #20]
 8000b10:	2b00      	cmp	r3, #0
 8000b12:	d01c      	beq.n	8000b4e <HAL_RCC_OscConfig+0x40e>
        MODIFY_REG(RCC->CSR, RCC_CSR_LSIPREDIV, RCC_OscInitStruct->LSIDiv);
      }
#endif /* RCC_CSR_LSIPREDIV */

      /* Enable the Internal Low Speed oscillator (LSI). */
      __HAL_RCC_LSI_ENABLE();
 8000b14:	4b68      	ldr	r3, [pc, #416]	; (8000cb8 <HAL_RCC_OscConfig+0x578>)
 8000b16:	f8d3 3094 	ldr.w	r3, [r3, #148]	; 0x94
 8000b1a:	4a67      	ldr	r2, [pc, #412]	; (8000cb8 <HAL_RCC_OscConfig+0x578>)
 8000b1c:	f043 0301 	orr.w	r3, r3, #1
 8000b20:	f8c2 3094 	str.w	r3, [r2, #148]	; 0x94

      /* Get Start Tick*/
      tickstart = HAL_GetTick();
 8000b24:	f7ff fcb6 	bl	8000494 <HAL_GetTick>
 8000b28:	6138      	str	r0, [r7, #16]

      /* Wait till LSI is ready */
      while(READ_BIT(RCC->CSR, RCC_CSR_LSIRDY) == 0U)
 8000b2a:	e008      	b.n	8000b3e <HAL_RCC_OscConfig+0x3fe>
      {
        if((HAL_GetTick() - tickstart) > LSI_TIMEOUT_VALUE)
 8000b2c:	f7ff fcb2 	bl	8000494 <HAL_GetTick>
 8000b30:	4602      	mov	r2, r0
 8000b32:	693b      	ldr	r3, [r7, #16]
 8000b34:	1ad3      	subs	r3, r2, r3
 8000b36:	2b02      	cmp	r3, #2
 8000b38:	d901      	bls.n	8000b3e <HAL_RCC_OscConfig+0x3fe>
        {
          return HAL_TIMEOUT;
 8000b3a:	2303      	movs	r3, #3
 8000b3c:	e21b      	b.n	8000f76 <HAL_RCC_OscConfig+0x836>
      while(READ_BIT(RCC->CSR, RCC_CSR_LSIRDY) == 0U)
 8000b3e:	4b5e      	ldr	r3, [pc, #376]	; (8000cb8 <HAL_RCC_OscConfig+0x578>)
 8000b40:	f8d3 3094 	ldr.w	r3, [r3, #148]	; 0x94
 8000b44:	f003 0302 	and.w	r3, r3, #2
 8000b48:	2b00      	cmp	r3, #0
 8000b4a:	d0ef      	beq.n	8000b2c <HAL_RCC_OscConfig+0x3ec>
 8000b4c:	e01b      	b.n	8000b86 <HAL_RCC_OscConfig+0x446>
      }
    }
    else
    {
      /* Disable the Internal Low Speed oscillator (LSI). */
      __HAL_RCC_LSI_DISABLE();
 8000b4e:	4b5a      	ldr	r3, [pc, #360]	; (8000cb8 <HAL_RCC_OscConfig+0x578>)
 8000b50:	f8d3 3094 	ldr.w	r3, [r3, #148]	; 0x94
 8000b54:	4a58      	ldr	r2, [pc, #352]	; (8000cb8 <HAL_RCC_OscConfig+0x578>)
 8000b56:	f023 0301 	bic.w	r3, r3, #1
 8000b5a:	f8c2 3094 	str.w	r3, [r2, #148]	; 0x94

      /* Get Start Tick*/
      tickstart = HAL_GetTick();
 8000b5e:	f7ff fc99 	bl	8000494 <HAL_GetTick>
 8000b62:	6138      	str	r0, [r7, #16]

      /* Wait till LSI is disabled */
      while(READ_BIT(RCC->CSR, RCC_CSR_LSIRDY) != 0U)
 8000b64:	e008      	b.n	8000b78 <HAL_RCC_OscConfig+0x438>
      {
        if((HAL_GetTick() - tickstart) > LSI_TIMEOUT_VALUE)
 8000b66:	f7ff fc95 	bl	8000494 <HAL_GetTick>
 8000b6a:	4602      	mov	r2, r0
 8000b6c:	693b      	ldr	r3, [r7, #16]
 8000b6e:	1ad3      	subs	r3, r2, r3
 8000b70:	2b02      	cmp	r3, #2
 8000b72:	d901      	bls.n	8000b78 <HAL_RCC_OscConfig+0x438>
        {
          return HAL_TIMEOUT;
 8000b74:	2303      	movs	r3, #3
 8000b76:	e1fe      	b.n	8000f76 <HAL_RCC_OscConfig+0x836>
      while(READ_BIT(RCC->CSR, RCC_CSR_LSIRDY) != 0U)
 8000b78:	4b4f      	ldr	r3, [pc, #316]	; (8000cb8 <HAL_RCC_OscConfig+0x578>)
 8000b7a:	f8d3 3094 	ldr.w	r3, [r3, #148]	; 0x94
 8000b7e:	f003 0302 	and.w	r3, r3, #2
 8000b82:	2b00      	cmp	r3, #0
 8000b84:	d1ef      	bne.n	8000b66 <HAL_RCC_OscConfig+0x426>
        }
      }
    }
  }
  /*------------------------------ LSE Configuration -------------------------*/
  if(((RCC_OscInitStruct->OscillatorType) & RCC_OSCILLATORTYPE_LSE) == RCC_OSCILLATORTYPE_LSE)
 8000b86:	687b      	ldr	r3, [r7, #4]
 8000b88:	681b      	ldr	r3, [r3, #0]
 8000b8a:	f003 0304 	and.w	r3, r3, #4
 8000b8e:	2b00      	cmp	r3, #0
 8000b90:	f000 80a6 	beq.w	8000ce0 <HAL_RCC_OscConfig+0x5a0>
  {
    FlagStatus       pwrclkchanged = RESET;
 8000b94:	2300      	movs	r3, #0
 8000b96:	77fb      	strb	r3, [r7, #31]
    /* Check the parameters */
    assert_param(IS_RCC_LSE(RCC_OscInitStruct->LSEState));

    /* Update LSE configuration in Backup Domain control register    */
    /* Requires to enable write access to Backup Domain of necessary */
    if(HAL_IS_BIT_CLR(RCC->APB1ENR1, RCC_APB1ENR1_PWREN))
 8000b98:	4b47      	ldr	r3, [pc, #284]	; (8000cb8 <HAL_RCC_OscConfig+0x578>)
 8000b9a:	6d9b      	ldr	r3, [r3, #88]	; 0x58
 8000b9c:	f003 5380 	and.w	r3, r3, #268435456	; 0x10000000
 8000ba0:	2b00      	cmp	r3, #0
 8000ba2:	d10d      	bne.n	8000bc0 <HAL_RCC_OscConfig+0x480>
    {
      __HAL_RCC_PWR_CLK_ENABLE();
 8000ba4:	4b44      	ldr	r3, [pc, #272]	; (8000cb8 <HAL_RCC_OscConfig+0x578>)
 8000ba6:	6d9b      	ldr	r3, [r3, #88]	; 0x58
 8000ba8:	4a43      	ldr	r2, [pc, #268]	; (8000cb8 <HAL_RCC_OscConfig+0x578>)
 8000baa:	f043 5380 	orr.w	r3, r3, #268435456	; 0x10000000
 8000bae:	6593      	str	r3, [r2, #88]	; 0x58
 8000bb0:	4b41      	ldr	r3, [pc, #260]	; (8000cb8 <HAL_RCC_OscConfig+0x578>)
 8000bb2:	6d9b      	ldr	r3, [r3, #88]	; 0x58
 8000bb4:	f003 5380 	and.w	r3, r3, #268435456	; 0x10000000
 8000bb8:	60bb      	str	r3, [r7, #8]
 8000bba:	68bb      	ldr	r3, [r7, #8]
      pwrclkchanged = SET;
 8000bbc:	2301      	movs	r3, #1
 8000bbe:	77fb      	strb	r3, [r7, #31]
    }

    if(HAL_IS_BIT_CLR(PWR->CR1, PWR_CR1_DBP))
 8000bc0:	4b3e      	ldr	r3, [pc, #248]	; (8000cbc <HAL_RCC_OscConfig+0x57c>)
 8000bc2:	681b      	ldr	r3, [r3, #0]
 8000bc4:	f403 7380 	and.w	r3, r3, #256	; 0x100
 8000bc8:	2b00      	cmp	r3, #0
 8000bca:	d118      	bne.n	8000bfe <HAL_RCC_OscConfig+0x4be>
    {
      /* Enable write access to Backup domain */
      SET_BIT(PWR->CR1, PWR_CR1_DBP);
 8000bcc:	4b3b      	ldr	r3, [pc, #236]	; (8000cbc <HAL_RCC_OscConfig+0x57c>)
 8000bce:	681b      	ldr	r3, [r3, #0]
 8000bd0:	4a3a      	ldr	r2, [pc, #232]	; (8000cbc <HAL_RCC_OscConfig+0x57c>)
 8000bd2:	f443 7380 	orr.w	r3, r3, #256	; 0x100
 8000bd6:	6013      	str	r3, [r2, #0]

      /* Wait for Backup domain Write protection disable */
      tickstart = HAL_GetTick();
 8000bd8:	f7ff fc5c 	bl	8000494 <HAL_GetTick>
 8000bdc:	6138      	str	r0, [r7, #16]

      while(HAL_IS_BIT_CLR(PWR->CR1, PWR_CR1_DBP))
 8000bde:	e008      	b.n	8000bf2 <HAL_RCC_OscConfig+0x4b2>
      {
        if((HAL_GetTick() - tickstart) > RCC_DBP_TIMEOUT_VALUE)
 8000be0:	f7ff fc58 	bl	8000494 <HAL_GetTick>
 8000be4:	4602      	mov	r2, r0
 8000be6:	693b      	ldr	r3, [r7, #16]
 8000be8:	1ad3      	subs	r3, r2, r3
 8000bea:	2b02      	cmp	r3, #2
 8000bec:	d901      	bls.n	8000bf2 <HAL_RCC_OscConfig+0x4b2>
        {
          return HAL_TIMEOUT;
 8000bee:	2303      	movs	r3, #3
 8000bf0:	e1c1      	b.n	8000f76 <HAL_RCC_OscConfig+0x836>
      while(HAL_IS_BIT_CLR(PWR->CR1, PWR_CR1_DBP))
 8000bf2:	4b32      	ldr	r3, [pc, #200]	; (8000cbc <HAL_RCC_OscConfig+0x57c>)
 8000bf4:	681b      	ldr	r3, [r3, #0]
 8000bf6:	f403 7380 	and.w	r3, r3, #256	; 0x100
 8000bfa:	2b00      	cmp	r3, #0
 8000bfc:	d0f0      	beq.n	8000be0 <HAL_RCC_OscConfig+0x4a0>
    {
      CLEAR_BIT(RCC->BDCR, RCC_BDCR_LSEON);
      CLEAR_BIT(RCC->BDCR, RCC_BDCR_LSEBYP);
    }
#else
    __HAL_RCC_LSE_CONFIG(RCC_OscInitStruct->LSEState);
 8000bfe:	687b      	ldr	r3, [r7, #4]
 8000c00:	689b      	ldr	r3, [r3, #8]
 8000c02:	2b01      	cmp	r3, #1
 8000c04:	d108      	bne.n	8000c18 <HAL_RCC_OscConfig+0x4d8>
 8000c06:	4b2c      	ldr	r3, [pc, #176]	; (8000cb8 <HAL_RCC_OscConfig+0x578>)
 8000c08:	f8d3 3090 	ldr.w	r3, [r3, #144]	; 0x90
 8000c0c:	4a2a      	ldr	r2, [pc, #168]	; (8000cb8 <HAL_RCC_OscConfig+0x578>)
 8000c0e:	f043 0301 	orr.w	r3, r3, #1
 8000c12:	f8c2 3090 	str.w	r3, [r2, #144]	; 0x90
 8000c16:	e024      	b.n	8000c62 <HAL_RCC_OscConfig+0x522>
 8000c18:	687b      	ldr	r3, [r7, #4]
 8000c1a:	689b      	ldr	r3, [r3, #8]
 8000c1c:	2b05      	cmp	r3, #5
 8000c1e:	d110      	bne.n	8000c42 <HAL_RCC_OscConfig+0x502>
 8000c20:	4b25      	ldr	r3, [pc, #148]	; (8000cb8 <HAL_RCC_OscConfig+0x578>)
 8000c22:	f8d3 3090 	ldr.w	r3, [r3, #144]	; 0x90
 8000c26:	4a24      	ldr	r2, [pc, #144]	; (8000cb8 <HAL_RCC_OscConfig+0x578>)
 8000c28:	f043 0304 	orr.w	r3, r3, #4
 8000c2c:	f8c2 3090 	str.w	r3, [r2, #144]	; 0x90
 8000c30:	4b21      	ldr	r3, [pc, #132]	; (8000cb8 <HAL_RCC_OscConfig+0x578>)
 8000c32:	f8d3 3090 	ldr.w	r3, [r3, #144]	; 0x90
 8000c36:	4a20      	ldr	r2, [pc, #128]	; (8000cb8 <HAL_RCC_OscConfig+0x578>)
 8000c38:	f043 0301 	orr.w	r3, r3, #1
 8000c3c:	f8c2 3090 	str.w	r3, [r2, #144]	; 0x90
 8000c40:	e00f      	b.n	8000c62 <HAL_RCC_OscConfig+0x522>
 8000c42:	4b1d      	ldr	r3, [pc, #116]	; (8000cb8 <HAL_RCC_OscConfig+0x578>)
 8000c44:	f8d3 3090 	ldr.w	r3, [r3, #144]	; 0x90
 8000c48:	4a1b      	ldr	r2, [pc, #108]	; (8000cb8 <HAL_RCC_OscConfig+0x578>)
 8000c4a:	f023 0301 	bic.w	r3, r3, #1
 8000c4e:	f8c2 3090 	str.w	r3, [r2, #144]	; 0x90
 8000c52:	4b19      	ldr	r3, [pc, #100]	; (8000cb8 <HAL_RCC_OscConfig+0x578>)
 8000c54:	f8d3 3090 	ldr.w	r3, [r3, #144]	; 0x90
 8000c58:	4a17      	ldr	r2, [pc, #92]	; (8000cb8 <HAL_RCC_OscConfig+0x578>)
 8000c5a:	f023 0304 	bic.w	r3, r3, #4
 8000c5e:	f8c2 3090 	str.w	r3, [r2, #144]	; 0x90
#endif /* RCC_BDCR_LSESYSDIS */

    /* Check the LSE State */
    if(RCC_OscInitStruct->LSEState != RCC_LSE_OFF)
 8000c62:	687b      	ldr	r3, [r7, #4]
 8000c64:	689b      	ldr	r3, [r3, #8]
 8000c66:	2b00      	cmp	r3, #0
 8000c68:	d016      	beq.n	8000c98 <HAL_RCC_OscConfig+0x558>
    {
      /* Get Start Tick*/
      tickstart = HAL_GetTick();
 8000c6a:	f7ff fc13 	bl	8000494 <HAL_GetTick>
 8000c6e:	6138      	str	r0, [r7, #16]

      /* Wait till LSE is ready */
      while(READ_BIT(RCC->BDCR, RCC_BDCR_LSERDY) == 0U)
 8000c70:	e00a      	b.n	8000c88 <HAL_RCC_OscConfig+0x548>
      {
        if((HAL_GetTick() - tickstart) > RCC_LSE_TIMEOUT_VALUE)
 8000c72:	f7ff fc0f 	bl	8000494 <HAL_GetTick>
 8000c76:	4602      	mov	r2, r0
 8000c78:	693b      	ldr	r3, [r7, #16]
 8000c7a:	1ad3      	subs	r3, r2, r3
 8000c7c:	f241 3288 	movw	r2, #5000	; 0x1388
 8000c80:	4293      	cmp	r3, r2
 8000c82:	d901      	bls.n	8000c88 <HAL_RCC_OscConfig+0x548>
        {
          return HAL_TIMEOUT;
 8000c84:	2303      	movs	r3, #3
 8000c86:	e176      	b.n	8000f76 <HAL_RCC_OscConfig+0x836>
      while(READ_BIT(RCC->BDCR, RCC_BDCR_LSERDY) == 0U)
 8000c88:	4b0b      	ldr	r3, [pc, #44]	; (8000cb8 <HAL_RCC_OscConfig+0x578>)
 8000c8a:	f8d3 3090 	ldr.w	r3, [r3, #144]	; 0x90
 8000c8e:	f003 0302 	and.w	r3, r3, #2
 8000c92:	2b00      	cmp	r3, #0
 8000c94:	d0ed      	beq.n	8000c72 <HAL_RCC_OscConfig+0x532>
 8000c96:	e01a      	b.n	8000cce <HAL_RCC_OscConfig+0x58e>
      }
    }
    else
    {
      /* Get Start Tick*/
      tickstart = HAL_GetTick();
 8000c98:	f7ff fbfc 	bl	8000494 <HAL_GetTick>
 8000c9c:	6138      	str	r0, [r7, #16]

      /* Wait till LSE is disabled */
      while(READ_BIT(RCC->BDCR, RCC_BDCR_LSERDY) != 0U)
 8000c9e:	e00f      	b.n	8000cc0 <HAL_RCC_OscConfig+0x580>
      {
        if((HAL_GetTick() - tickstart) > RCC_LSE_TIMEOUT_VALUE)
 8000ca0:	f7ff fbf8 	bl	8000494 <HAL_GetTick>
 8000ca4:	4602      	mov	r2, r0
 8000ca6:	693b      	ldr	r3, [r7, #16]
 8000ca8:	1ad3      	subs	r3, r2, r3
 8000caa:	f241 3288 	movw	r2, #5000	; 0x1388
 8000cae:	4293      	cmp	r3, r2
 8000cb0:	d906      	bls.n	8000cc0 <HAL_RCC_OscConfig+0x580>
        {
          return HAL_TIMEOUT;
 8000cb2:	2303      	movs	r3, #3
 8000cb4:	e15f      	b.n	8000f76 <HAL_RCC_OscConfig+0x836>
 8000cb6:	bf00      	nop
 8000cb8:	40021000 	.word	0x40021000
 8000cbc:	40007000 	.word	0x40007000
      while(READ_BIT(RCC->BDCR, RCC_BDCR_LSERDY) != 0U)
 8000cc0:	4baa      	ldr	r3, [pc, #680]	; (8000f6c <HAL_RCC_OscConfig+0x82c>)
 8000cc2:	f8d3 3090 	ldr.w	r3, [r3, #144]	; 0x90
 8000cc6:	f003 0302 	and.w	r3, r3, #2
 8000cca:	2b00      	cmp	r3, #0
 8000ccc:	d1e8      	bne.n	8000ca0 <HAL_RCC_OscConfig+0x560>
      CLEAR_BIT(RCC->BDCR, RCC_BDCR_LSESYSDIS);
#endif /* RCC_BDCR_LSESYSDIS */
    }

    /* Restore clock configuration if changed */
    if(pwrclkchanged == SET)
 8000cce:	7ffb      	ldrb	r3, [r7, #31]
 8000cd0:	2b01      	cmp	r3, #1
 8000cd2:	d105      	bne.n	8000ce0 <HAL_RCC_OscConfig+0x5a0>
    {
      __HAL_RCC_PWR_CLK_DISABLE();
 8000cd4:	4ba5      	ldr	r3, [pc, #660]	; (8000f6c <HAL_RCC_OscConfig+0x82c>)
 8000cd6:	6d9b      	ldr	r3, [r3, #88]	; 0x58
 8000cd8:	4aa4      	ldr	r2, [pc, #656]	; (8000f6c <HAL_RCC_OscConfig+0x82c>)
 8000cda:	f023 5380 	bic.w	r3, r3, #268435456	; 0x10000000
 8000cde:	6593      	str	r3, [r2, #88]	; 0x58
    }
  }
#if defined(RCC_HSI48_SUPPORT)
  /*------------------------------ HSI48 Configuration -----------------------*/
  if(((RCC_OscInitStruct->OscillatorType) & RCC_OSCILLATORTYPE_HSI48) == RCC_OSCILLATORTYPE_HSI48)
 8000ce0:	687b      	ldr	r3, [r7, #4]
 8000ce2:	681b      	ldr	r3, [r3, #0]
 8000ce4:	f003 0320 	and.w	r3, r3, #32
 8000ce8:	2b00      	cmp	r3, #0
 8000cea:	d03c      	beq.n	8000d66 <HAL_RCC_OscConfig+0x626>
  {
    /* Check the parameters */
    assert_param(IS_RCC_HSI48(RCC_OscInitStruct->HSI48State));

    /* Check the LSI State */
    if(RCC_OscInitStruct->HSI48State != RCC_HSI48_OFF)
 8000cec:	687b      	ldr	r3, [r7, #4]
 8000cee:	6a5b      	ldr	r3, [r3, #36]	; 0x24
 8000cf0:	2b00      	cmp	r3, #0
 8000cf2:	d01c      	beq.n	8000d2e <HAL_RCC_OscConfig+0x5ee>
    {
      /* Enable the Internal Low Speed oscillator (HSI48). */
      __HAL_RCC_HSI48_ENABLE();
 8000cf4:	4b9d      	ldr	r3, [pc, #628]	; (8000f6c <HAL_RCC_OscConfig+0x82c>)
 8000cf6:	f8d3 3098 	ldr.w	r3, [r3, #152]	; 0x98
 8000cfa:	4a9c      	ldr	r2, [pc, #624]	; (8000f6c <HAL_RCC_OscConfig+0x82c>)
 8000cfc:	f043 0301 	orr.w	r3, r3, #1
 8000d00:	f8c2 3098 	str.w	r3, [r2, #152]	; 0x98

      /* Get Start Tick*/
      tickstart = HAL_GetTick();
 8000d04:	f7ff fbc6 	bl	8000494 <HAL_GetTick>
 8000d08:	6138      	str	r0, [r7, #16]

      /* Wait till HSI48 is ready */
      while(READ_BIT(RCC->CRRCR, RCC_CRRCR_HSI48RDY) == 0U)
 8000d0a:	e008      	b.n	8000d1e <HAL_RCC_OscConfig+0x5de>
      {
        if((HAL_GetTick() - tickstart) > HSI48_TIMEOUT_VALUE)
 8000d0c:	f7ff fbc2 	bl	8000494 <HAL_GetTick>
 8000d10:	4602      	mov	r2, r0
 8000d12:	693b      	ldr	r3, [r7, #16]
 8000d14:	1ad3      	subs	r3, r2, r3
 8000d16:	2b02      	cmp	r3, #2
 8000d18:	d901      	bls.n	8000d1e <HAL_RCC_OscConfig+0x5de>
        {
          return HAL_TIMEOUT;
 8000d1a:	2303      	movs	r3, #3
 8000d1c:	e12b      	b.n	8000f76 <HAL_RCC_OscConfig+0x836>
      while(READ_BIT(RCC->CRRCR, RCC_CRRCR_HSI48RDY) == 0U)
 8000d1e:	4b93      	ldr	r3, [pc, #588]	; (8000f6c <HAL_RCC_OscConfig+0x82c>)
 8000d20:	f8d3 3098 	ldr.w	r3, [r3, #152]	; 0x98
 8000d24:	f003 0302 	and.w	r3, r3, #2
 8000d28:	2b00      	cmp	r3, #0
 8000d2a:	d0ef      	beq.n	8000d0c <HAL_RCC_OscConfig+0x5cc>
 8000d2c:	e01b      	b.n	8000d66 <HAL_RCC_OscConfig+0x626>
      }
    }
    else
    {
      /* Disable the Internal Low Speed oscillator (HSI48). */
      __HAL_RCC_HSI48_DISABLE();
 8000d2e:	4b8f      	ldr	r3, [pc, #572]	; (8000f6c <HAL_RCC_OscConfig+0x82c>)
 8000d30:	f8d3 3098 	ldr.w	r3, [r3, #152]	; 0x98
 8000d34:	4a8d      	ldr	r2, [pc, #564]	; (8000f6c <HAL_RCC_OscConfig+0x82c>)
 8000d36:	f023 0301 	bic.w	r3, r3, #1
 8000d3a:	f8c2 3098 	str.w	r3, [r2, #152]	; 0x98

      /* Get Start Tick*/
      tickstart = HAL_GetTick();
 8000d3e:	f7ff fba9 	bl	8000494 <HAL_GetTick>
 8000d42:	6138      	str	r0, [r7, #16]

      /* Wait till HSI48 is disabled */
      while(READ_BIT(RCC->CRRCR, RCC_CRRCR_HSI48RDY) != 0U)
 8000d44:	e008      	b.n	8000d58 <HAL_RCC_OscConfig+0x618>
      {
        if((HAL_GetTick() - tickstart) > HSI48_TIMEOUT_VALUE)
 8000d46:	f7ff fba5 	bl	8000494 <HAL_GetTick>
 8000d4a:	4602      	mov	r2, r0
 8000d4c:	693b      	ldr	r3, [r7, #16]
 8000d4e:	1ad3      	subs	r3, r2, r3
 8000d50:	2b02      	cmp	r3, #2
 8000d52:	d901      	bls.n	8000d58 <HAL_RCC_OscConfig+0x618>
        {
          return HAL_TIMEOUT;
 8000d54:	2303      	movs	r3, #3
 8000d56:	e10e      	b.n	8000f76 <HAL_RCC_OscConfig+0x836>
      while(READ_BIT(RCC->CRRCR, RCC_CRRCR_HSI48RDY) != 0U)
 8000d58:	4b84      	ldr	r3, [pc, #528]	; (8000f6c <HAL_RCC_OscConfig+0x82c>)
 8000d5a:	f8d3 3098 	ldr.w	r3, [r3, #152]	; 0x98
 8000d5e:	f003 0302 	and.w	r3, r3, #2
 8000d62:	2b00      	cmp	r3, #0
 8000d64:	d1ef      	bne.n	8000d46 <HAL_RCC_OscConfig+0x606>
#endif /* RCC_HSI48_SUPPORT */
  /*-------------------------------- PLL Configuration -----------------------*/
  /* Check the parameters */
  assert_param(IS_RCC_PLL(RCC_OscInitStruct->PLL.PLLState));

  if(RCC_OscInitStruct->PLL.PLLState != RCC_PLL_NONE)
 8000d66:	687b      	ldr	r3, [r7, #4]
 8000d68:	6a9b      	ldr	r3, [r3, #40]	; 0x28
 8000d6a:	2b00      	cmp	r3, #0
 8000d6c:	f000 8102 	beq.w	8000f74 <HAL_RCC_OscConfig+0x834>
  {
    /* PLL On ? */
    if(RCC_OscInitStruct->PLL.PLLState == RCC_PLL_ON)
 8000d70:	687b      	ldr	r3, [r7, #4]
 8000d72:	6a9b      	ldr	r3, [r3, #40]	; 0x28
 8000d74:	2b02      	cmp	r3, #2
 8000d76:	f040 80c5 	bne.w	8000f04 <HAL_RCC_OscConfig+0x7c4>
#endif /* RCC_PLLP_SUPPORT */
      assert_param(IS_RCC_PLLQ_VALUE(RCC_OscInitStruct->PLL.PLLQ));
      assert_param(IS_RCC_PLLR_VALUE(RCC_OscInitStruct->PLL.PLLR));

      /* Do nothing if PLL configuration is the unchanged */
      pll_config = RCC->PLLCFGR;
 8000d7a:	4b7c      	ldr	r3, [pc, #496]	; (8000f6c <HAL_RCC_OscConfig+0x82c>)
 8000d7c:	68db      	ldr	r3, [r3, #12]
 8000d7e:	617b      	str	r3, [r7, #20]
      if((READ_BIT(pll_config, RCC_PLLCFGR_PLLSRC)  != RCC_OscInitStruct->PLL.PLLSource) ||
 8000d80:	697b      	ldr	r3, [r7, #20]
 8000d82:	f003 0203 	and.w	r2, r3, #3
 8000d86:	687b      	ldr	r3, [r7, #4]
 8000d88:	6adb      	ldr	r3, [r3, #44]	; 0x2c
 8000d8a:	429a      	cmp	r2, r3
 8000d8c:	d12c      	bne.n	8000de8 <HAL_RCC_OscConfig+0x6a8>
         (READ_BIT(pll_config, RCC_PLLCFGR_PLLM)    != ((RCC_OscInitStruct->PLL.PLLM - 1U) << RCC_PLLCFGR_PLLM_Pos)) ||
 8000d8e:	697b      	ldr	r3, [r7, #20]
 8000d90:	f003 0270 	and.w	r2, r3, #112	; 0x70
 8000d94:	687b      	ldr	r3, [r7, #4]
 8000d96:	6b1b      	ldr	r3, [r3, #48]	; 0x30
 8000d98:	3b01      	subs	r3, #1
 8000d9a:	011b      	lsls	r3, r3, #4
      if((READ_BIT(pll_config, RCC_PLLCFGR_PLLSRC)  != RCC_OscInitStruct->PLL.PLLSource) ||
 8000d9c:	429a      	cmp	r2, r3
 8000d9e:	d123      	bne.n	8000de8 <HAL_RCC_OscConfig+0x6a8>
         (READ_BIT(pll_config, RCC_PLLCFGR_PLLN)    != (RCC_OscInitStruct->PLL.PLLN << RCC_PLLCFGR_PLLN_Pos)) ||
 8000da0:	697b      	ldr	r3, [r7, #20]
 8000da2:	f403 42fe 	and.w	r2, r3, #32512	; 0x7f00
 8000da6:	687b      	ldr	r3, [r7, #4]
 8000da8:	6b5b      	ldr	r3, [r3, #52]	; 0x34
 8000daa:	021b      	lsls	r3, r3, #8
         (READ_BIT(pll_config, RCC_PLLCFGR_PLLM)    != ((RCC_OscInitStruct->PLL.PLLM - 1U) << RCC_PLLCFGR_PLLM_Pos)) ||
 8000dac:	429a      	cmp	r2, r3
 8000dae:	d11b      	bne.n	8000de8 <HAL_RCC_OscConfig+0x6a8>
#if defined(RCC_PLLP_SUPPORT)
#if defined(RCC_PLLP_DIV_2_31_SUPPORT)
         (READ_BIT(pll_config, RCC_PLLCFGR_PLLPDIV) != (RCC_OscInitStruct->PLL.PLLP << RCC_PLLCFGR_PLLPDIV_Pos)) ||
 8000db0:	697b      	ldr	r3, [r7, #20]
 8000db2:	f003 4278 	and.w	r2, r3, #4160749568	; 0xf8000000
 8000db6:	687b      	ldr	r3, [r7, #4]
 8000db8:	6b9b      	ldr	r3, [r3, #56]	; 0x38
 8000dba:	06db      	lsls	r3, r3, #27
         (READ_BIT(pll_config, RCC_PLLCFGR_PLLN)    != (RCC_OscInitStruct->PLL.PLLN << RCC_PLLCFGR_PLLN_Pos)) ||
 8000dbc:	429a      	cmp	r2, r3
 8000dbe:	d113      	bne.n	8000de8 <HAL_RCC_OscConfig+0x6a8>
#else
         (READ_BIT(pll_config, RCC_PLLCFGR_PLLP)    != ((RCC_OscInitStruct->PLL.PLLP == RCC_PLLP_DIV7) ? 0U : 1U)) ||
#endif
#endif
         (READ_BIT(pll_config, RCC_PLLCFGR_PLLQ)    != ((((RCC_OscInitStruct->PLL.PLLQ) >> 1U) - 1U) << RCC_PLLCFGR_PLLQ_Pos)) ||
 8000dc0:	697b      	ldr	r3, [r7, #20]
 8000dc2:	f403 02c0 	and.w	r2, r3, #6291456	; 0x600000
 8000dc6:	687b      	ldr	r3, [r7, #4]
 8000dc8:	6bdb      	ldr	r3, [r3, #60]	; 0x3c
 8000dca:	085b      	lsrs	r3, r3, #1
 8000dcc:	3b01      	subs	r3, #1
 8000dce:	055b      	lsls	r3, r3, #21
         (READ_BIT(pll_config, RCC_PLLCFGR_PLLPDIV) != (RCC_OscInitStruct->PLL.PLLP << RCC_PLLCFGR_PLLPDIV_Pos)) ||
 8000dd0:	429a      	cmp	r2, r3
 8000dd2:	d109      	bne.n	8000de8 <HAL_RCC_OscConfig+0x6a8>
         (READ_BIT(pll_config, RCC_PLLCFGR_PLLR)    != ((((RCC_OscInitStruct->PLL.PLLR) >> 1U) - 1U) << RCC_PLLCFGR_PLLR_Pos)))
 8000dd4:	697b      	ldr	r3, [r7, #20]
 8000dd6:	f003 62c0 	and.w	r2, r3, #100663296	; 0x6000000
 8000dda:	687b      	ldr	r3, [r7, #4]
 8000ddc:	6c1b      	ldr	r3, [r3, #64]	; 0x40
 8000dde:	085b      	lsrs	r3, r3, #1
 8000de0:	3b01      	subs	r3, #1
 8000de2:	065b      	lsls	r3, r3, #25
         (READ_BIT(pll_config, RCC_PLLCFGR_PLLQ)    != ((((RCC_OscInitStruct->PLL.PLLQ) >> 1U) - 1U) << RCC_PLLCFGR_PLLQ_Pos)) ||
 8000de4:	429a      	cmp	r2, r3
 8000de6:	d067      	beq.n	8000eb8 <HAL_RCC_OscConfig+0x778>
      {
        /* Check if the PLL is used as system clock or not */
        if(sysclk_source != RCC_CFGR_SWS_PLL)
 8000de8:	69bb      	ldr	r3, [r7, #24]
 8000dea:	2b0c      	cmp	r3, #12
 8000dec:	d062      	beq.n	8000eb4 <HAL_RCC_OscConfig+0x774>
        {
#if defined(RCC_PLLSAI1_SUPPORT) || defined(RCC_PLLSAI2_SUPPORT)
          /* Check if main PLL can be updated */
          /* Not possible if the source is shared by other enabled PLLSAIx */
          if((READ_BIT(RCC->CR, RCC_CR_PLLSAI1ON) != 0U)
 8000dee:	4b5f      	ldr	r3, [pc, #380]	; (8000f6c <HAL_RCC_OscConfig+0x82c>)
 8000df0:	681b      	ldr	r3, [r3, #0]
 8000df2:	f003 6380 	and.w	r3, r3, #67108864	; 0x4000000
 8000df6:	2b00      	cmp	r3, #0
 8000df8:	d001      	beq.n	8000dfe <HAL_RCC_OscConfig+0x6be>
#if defined(RCC_PLLSAI2_SUPPORT)
             || (READ_BIT(RCC->CR, RCC_CR_PLLSAI2ON) != 0U)
#endif
            )
          {
            return HAL_ERROR;
 8000dfa:	2301      	movs	r3, #1
 8000dfc:	e0bb      	b.n	8000f76 <HAL_RCC_OscConfig+0x836>
          }
          else
#endif /* RCC_PLLSAI1_SUPPORT || RCC_PLLSAI2_SUPPORT */
          {
            /* Disable the main PLL. */
            __HAL_RCC_PLL_DISABLE();
 8000dfe:	4b5b      	ldr	r3, [pc, #364]	; (8000f6c <HAL_RCC_OscConfig+0x82c>)
 8000e00:	681b      	ldr	r3, [r3, #0]
 8000e02:	4a5a      	ldr	r2, [pc, #360]	; (8000f6c <HAL_RCC_OscConfig+0x82c>)
 8000e04:	f023 7380 	bic.w	r3, r3, #16777216	; 0x1000000
 8000e08:	6013      	str	r3, [r2, #0]

            /* Get Start Tick*/
            tickstart = HAL_GetTick();
 8000e0a:	f7ff fb43 	bl	8000494 <HAL_GetTick>
 8000e0e:	6138      	str	r0, [r7, #16]

            /* Wait till PLL is ready */
            while(READ_BIT(RCC->CR, RCC_CR_PLLRDY) != 0U)
 8000e10:	e008      	b.n	8000e24 <HAL_RCC_OscConfig+0x6e4>
            {
              if((HAL_GetTick() - tickstart) > PLL_TIMEOUT_VALUE)
 8000e12:	f7ff fb3f 	bl	8000494 <HAL_GetTick>
 8000e16:	4602      	mov	r2, r0
 8000e18:	693b      	ldr	r3, [r7, #16]
 8000e1a:	1ad3      	subs	r3, r2, r3
 8000e1c:	2b02      	cmp	r3, #2
 8000e1e:	d901      	bls.n	8000e24 <HAL_RCC_OscConfig+0x6e4>
              {
                return HAL_TIMEOUT;
 8000e20:	2303      	movs	r3, #3
 8000e22:	e0a8      	b.n	8000f76 <HAL_RCC_OscConfig+0x836>
            while(READ_BIT(RCC->CR, RCC_CR_PLLRDY) != 0U)
 8000e24:	4b51      	ldr	r3, [pc, #324]	; (8000f6c <HAL_RCC_OscConfig+0x82c>)
 8000e26:	681b      	ldr	r3, [r3, #0]
 8000e28:	f003 7300 	and.w	r3, r3, #33554432	; 0x2000000
 8000e2c:	2b00      	cmp	r3, #0
 8000e2e:	d1f0      	bne.n	8000e12 <HAL_RCC_OscConfig+0x6d2>
              }
            }

            /* Configure the main PLL clock source, multiplication and division factors. */
            __HAL_RCC_PLL_CONFIG(RCC_OscInitStruct->PLL.PLLSource,
 8000e30:	4b4e      	ldr	r3, [pc, #312]	; (8000f6c <HAL_RCC_OscConfig+0x82c>)
 8000e32:	68da      	ldr	r2, [r3, #12]
 8000e34:	4b4e      	ldr	r3, [pc, #312]	; (8000f70 <HAL_RCC_OscConfig+0x830>)
 8000e36:	4013      	ands	r3, r2
 8000e38:	687a      	ldr	r2, [r7, #4]
 8000e3a:	6ad1      	ldr	r1, [r2, #44]	; 0x2c
 8000e3c:	687a      	ldr	r2, [r7, #4]
 8000e3e:	6b12      	ldr	r2, [r2, #48]	; 0x30
 8000e40:	3a01      	subs	r2, #1
 8000e42:	0112      	lsls	r2, r2, #4
 8000e44:	4311      	orrs	r1, r2
 8000e46:	687a      	ldr	r2, [r7, #4]
 8000e48:	6b52      	ldr	r2, [r2, #52]	; 0x34
 8000e4a:	0212      	lsls	r2, r2, #8
 8000e4c:	4311      	orrs	r1, r2
 8000e4e:	687a      	ldr	r2, [r7, #4]
 8000e50:	6bd2      	ldr	r2, [r2, #60]	; 0x3c
 8000e52:	0852      	lsrs	r2, r2, #1
 8000e54:	3a01      	subs	r2, #1
 8000e56:	0552      	lsls	r2, r2, #21
 8000e58:	4311      	orrs	r1, r2
 8000e5a:	687a      	ldr	r2, [r7, #4]
 8000e5c:	6c12      	ldr	r2, [r2, #64]	; 0x40
 8000e5e:	0852      	lsrs	r2, r2, #1
 8000e60:	3a01      	subs	r2, #1
 8000e62:	0652      	lsls	r2, r2, #25
 8000e64:	4311      	orrs	r1, r2
 8000e66:	687a      	ldr	r2, [r7, #4]
 8000e68:	6b92      	ldr	r2, [r2, #56]	; 0x38
 8000e6a:	06d2      	lsls	r2, r2, #27
 8000e6c:	430a      	orrs	r2, r1
 8000e6e:	493f      	ldr	r1, [pc, #252]	; (8000f6c <HAL_RCC_OscConfig+0x82c>)
 8000e70:	4313      	orrs	r3, r2
 8000e72:	60cb      	str	r3, [r1, #12]
#endif
                                 RCC_OscInitStruct->PLL.PLLQ,
                                 RCC_OscInitStruct->PLL.PLLR);

            /* Enable the main PLL. */
            __HAL_RCC_PLL_ENABLE();
 8000e74:	4b3d      	ldr	r3, [pc, #244]	; (8000f6c <HAL_RCC_OscConfig+0x82c>)
 8000e76:	681b      	ldr	r3, [r3, #0]
 8000e78:	4a3c      	ldr	r2, [pc, #240]	; (8000f6c <HAL_RCC_OscConfig+0x82c>)
 8000e7a:	f043 7380 	orr.w	r3, r3, #16777216	; 0x1000000
 8000e7e:	6013      	str	r3, [r2, #0]

            /* Enable PLL System Clock output. */
            __HAL_RCC_PLLCLKOUT_ENABLE(RCC_PLL_SYSCLK);
 8000e80:	4b3a      	ldr	r3, [pc, #232]	; (8000f6c <HAL_RCC_OscConfig+0x82c>)
 8000e82:	68db      	ldr	r3, [r3, #12]
 8000e84:	4a39      	ldr	r2, [pc, #228]	; (8000f6c <HAL_RCC_OscConfig+0x82c>)
 8000e86:	f043 7380 	orr.w	r3, r3, #16777216	; 0x1000000
 8000e8a:	60d3      	str	r3, [r2, #12]

            /* Get Start Tick*/
            tickstart = HAL_GetTick();
 8000e8c:	f7ff fb02 	bl	8000494 <HAL_GetTick>
 8000e90:	6138      	str	r0, [r7, #16]

            /* Wait till PLL is ready */
            while(READ_BIT(RCC->CR, RCC_CR_PLLRDY) == 0U)
 8000e92:	e008      	b.n	8000ea6 <HAL_RCC_OscConfig+0x766>
            {
              if((HAL_GetTick() - tickstart) > PLL_TIMEOUT_VALUE)
 8000e94:	f7ff fafe 	bl	8000494 <HAL_GetTick>
 8000e98:	4602      	mov	r2, r0
 8000e9a:	693b      	ldr	r3, [r7, #16]
 8000e9c:	1ad3      	subs	r3, r2, r3
 8000e9e:	2b02      	cmp	r3, #2
 8000ea0:	d901      	bls.n	8000ea6 <HAL_RCC_OscConfig+0x766>
              {
                return HAL_TIMEOUT;
 8000ea2:	2303      	movs	r3, #3
 8000ea4:	e067      	b.n	8000f76 <HAL_RCC_OscConfig+0x836>
            while(READ_BIT(RCC->CR, RCC_CR_PLLRDY) == 0U)
 8000ea6:	4b31      	ldr	r3, [pc, #196]	; (8000f6c <HAL_RCC_OscConfig+0x82c>)
 8000ea8:	681b      	ldr	r3, [r3, #0]
 8000eaa:	f003 7300 	and.w	r3, r3, #33554432	; 0x2000000
 8000eae:	2b00      	cmp	r3, #0
 8000eb0:	d0f0      	beq.n	8000e94 <HAL_RCC_OscConfig+0x754>
        if(sysclk_source != RCC_CFGR_SWS_PLL)
 8000eb2:	e05f      	b.n	8000f74 <HAL_RCC_OscConfig+0x834>
          }
        }
        else
        {
          /* PLL is already used as System core clock */
          return HAL_ERROR;
 8000eb4:	2301      	movs	r3, #1
 8000eb6:	e05e      	b.n	8000f76 <HAL_RCC_OscConfig+0x836>
      }
      else
      {
        /* PLL configuration is unchanged */
        /* Re-enable PLL if it was disabled (ie. low power mode) */
        if(READ_BIT(RCC->CR, RCC_CR_PLLRDY) == 0U)
 8000eb8:	4b2c      	ldr	r3, [pc, #176]	; (8000f6c <HAL_RCC_OscConfig+0x82c>)
 8000eba:	681b      	ldr	r3, [r3, #0]
 8000ebc:	f003 7300 	and.w	r3, r3, #33554432	; 0x2000000
 8000ec0:	2b00      	cmp	r3, #0
 8000ec2:	d157      	bne.n	8000f74 <HAL_RCC_OscConfig+0x834>
        {
          /* Enable the main PLL. */
          __HAL_RCC_PLL_ENABLE();
 8000ec4:	4b29      	ldr	r3, [pc, #164]	; (8000f6c <HAL_RCC_OscConfig+0x82c>)
 8000ec6:	681b      	ldr	r3, [r3, #0]
 8000ec8:	4a28      	ldr	r2, [pc, #160]	; (8000f6c <HAL_RCC_OscConfig+0x82c>)
 8000eca:	f043 7380 	orr.w	r3, r3, #16777216	; 0x1000000
 8000ece:	6013      	str	r3, [r2, #0]

          /* Enable PLL System Clock output. */
          __HAL_RCC_PLLCLKOUT_ENABLE(RCC_PLL_SYSCLK);
 8000ed0:	4b26      	ldr	r3, [pc, #152]	; (8000f6c <HAL_RCC_OscConfig+0x82c>)
 8000ed2:	68db      	ldr	r3, [r3, #12]
 8000ed4:	4a25      	ldr	r2, [pc, #148]	; (8000f6c <HAL_RCC_OscConfig+0x82c>)
 8000ed6:	f043 7380 	orr.w	r3, r3, #16777216	; 0x1000000
 8000eda:	60d3      	str	r3, [r2, #12]

          /* Get Start Tick*/
          tickstart = HAL_GetTick();
 8000edc:	f7ff fada 	bl	8000494 <HAL_GetTick>
 8000ee0:	6138      	str	r0, [r7, #16]

          /* Wait till PLL is ready */
          while(READ_BIT(RCC->CR, RCC_CR_PLLRDY) == 0U)
 8000ee2:	e008      	b.n	8000ef6 <HAL_RCC_OscConfig+0x7b6>
          {
            if((HAL_GetTick() - tickstart) > PLL_TIMEOUT_VALUE)
 8000ee4:	f7ff fad6 	bl	8000494 <HAL_GetTick>
 8000ee8:	4602      	mov	r2, r0
 8000eea:	693b      	ldr	r3, [r7, #16]
 8000eec:	1ad3      	subs	r3, r2, r3
 8000eee:	2b02      	cmp	r3, #2
 8000ef0:	d901      	bls.n	8000ef6 <HAL_RCC_OscConfig+0x7b6>
            {
              return HAL_TIMEOUT;
 8000ef2:	2303      	movs	r3, #3
 8000ef4:	e03f      	b.n	8000f76 <HAL_RCC_OscConfig+0x836>
          while(READ_BIT(RCC->CR, RCC_CR_PLLRDY) == 0U)
 8000ef6:	4b1d      	ldr	r3, [pc, #116]	; (8000f6c <HAL_RCC_OscConfig+0x82c>)
 8000ef8:	681b      	ldr	r3, [r3, #0]
 8000efa:	f003 7300 	and.w	r3, r3, #33554432	; 0x2000000
 8000efe:	2b00      	cmp	r3, #0
 8000f00:	d0f0      	beq.n	8000ee4 <HAL_RCC_OscConfig+0x7a4>
 8000f02:	e037      	b.n	8000f74 <HAL_RCC_OscConfig+0x834>
      }
    }
    else
    {
      /* Check that PLL is not used as system clock or not */
      if(sysclk_source != RCC_CFGR_SWS_PLL)
 8000f04:	69bb      	ldr	r3, [r7, #24]
 8000f06:	2b0c      	cmp	r3, #12
 8000f08:	d02d      	beq.n	8000f66 <HAL_RCC_OscConfig+0x826>
      {
        /* Disable the main PLL. */
        __HAL_RCC_PLL_DISABLE();
 8000f0a:	4b18      	ldr	r3, [pc, #96]	; (8000f6c <HAL_RCC_OscConfig+0x82c>)
 8000f0c:	681b      	ldr	r3, [r3, #0]
 8000f0e:	4a17      	ldr	r2, [pc, #92]	; (8000f6c <HAL_RCC_OscConfig+0x82c>)
 8000f10:	f023 7380 	bic.w	r3, r3, #16777216	; 0x1000000
 8000f14:	6013      	str	r3, [r2, #0]
        if(READ_BIT(RCC->CR, (RCC_CR_PLLSAI1RDY | RCC_CR_PLLSAI2RDY)) == 0U)
        {
          MODIFY_REG(RCC->PLLCFGR, RCC_PLLCFGR_PLLSRC, RCC_PLLSOURCE_NONE);
        }
#elif defined(RCC_PLLSAI1_SUPPORT)
        if(READ_BIT(RCC->CR, RCC_CR_PLLSAI1RDY) == 0U)
 8000f16:	4b15      	ldr	r3, [pc, #84]	; (8000f6c <HAL_RCC_OscConfig+0x82c>)
 8000f18:	681b      	ldr	r3, [r3, #0]
 8000f1a:	f003 6300 	and.w	r3, r3, #134217728	; 0x8000000
 8000f1e:	2b00      	cmp	r3, #0
 8000f20:	d105      	bne.n	8000f2e <HAL_RCC_OscConfig+0x7ee>
        {
          MODIFY_REG(RCC->PLLCFGR, RCC_PLLCFGR_PLLSRC, RCC_PLLSOURCE_NONE);
 8000f22:	4b12      	ldr	r3, [pc, #72]	; (8000f6c <HAL_RCC_OscConfig+0x82c>)
 8000f24:	68db      	ldr	r3, [r3, #12]
 8000f26:	4a11      	ldr	r2, [pc, #68]	; (8000f6c <HAL_RCC_OscConfig+0x82c>)
 8000f28:	f023 0303 	bic.w	r3, r3, #3
 8000f2c:	60d3      	str	r3, [r2, #12]
#endif /* RCC_PLLSAI1_SUPPORT && RCC_CR_PLLSAI2RDY */

#if defined(RCC_PLLSAI2_SUPPORT)
        __HAL_RCC_PLLCLKOUT_DISABLE(RCC_PLL_SYSCLK | RCC_PLL_48M1CLK | RCC_PLL_SAI3CLK);
#elif defined(RCC_PLLSAI1_SUPPORT)
        __HAL_RCC_PLLCLKOUT_DISABLE(RCC_PLL_SYSCLK | RCC_PLL_48M1CLK | RCC_PLL_SAI2CLK);
 8000f2e:	4b0f      	ldr	r3, [pc, #60]	; (8000f6c <HAL_RCC_OscConfig+0x82c>)
 8000f30:	68db      	ldr	r3, [r3, #12]
 8000f32:	4a0e      	ldr	r2, [pc, #56]	; (8000f6c <HAL_RCC_OscConfig+0x82c>)
 8000f34:	f023 7388 	bic.w	r3, r3, #17825792	; 0x1100000
 8000f38:	f423 3380 	bic.w	r3, r3, #65536	; 0x10000
 8000f3c:	60d3      	str	r3, [r2, #12]
#else
        __HAL_RCC_PLLCLKOUT_DISABLE(RCC_PLL_SYSCLK | RCC_PLL_48M1CLK);
#endif /* RCC_PLLSAI2_SUPPORT */

        /* Get Start Tick*/
        tickstart = HAL_GetTick();
 8000f3e:	f7ff faa9 	bl	8000494 <HAL_GetTick>
 8000f42:	6138      	str	r0, [r7, #16]

        /* Wait till PLL is disabled */
        while(READ_BIT(RCC->CR, RCC_CR_PLLRDY) != 0U)
 8000f44:	e008      	b.n	8000f58 <HAL_RCC_OscConfig+0x818>
        {
          if((HAL_GetTick() - tickstart) > PLL_TIMEOUT_VALUE)
 8000f46:	f7ff faa5 	bl	8000494 <HAL_GetTick>
 8000f4a:	4602      	mov	r2, r0
 8000f4c:	693b      	ldr	r3, [r7, #16]
 8000f4e:	1ad3      	subs	r3, r2, r3
 8000f50:	2b02      	cmp	r3, #2
 8000f52:	d901      	bls.n	8000f58 <HAL_RCC_OscConfig+0x818>
          {
            return HAL_TIMEOUT;
 8000f54:	2303      	movs	r3, #3
 8000f56:	e00e      	b.n	8000f76 <HAL_RCC_OscConfig+0x836>
        while(READ_BIT(RCC->CR, RCC_CR_PLLRDY) != 0U)
 8000f58:	4b04      	ldr	r3, [pc, #16]	; (8000f6c <HAL_RCC_OscConfig+0x82c>)
 8000f5a:	681b      	ldr	r3, [r3, #0]
 8000f5c:	f003 7300 	and.w	r3, r3, #33554432	; 0x2000000
 8000f60:	2b00      	cmp	r3, #0
 8000f62:	d1f0      	bne.n	8000f46 <HAL_RCC_OscConfig+0x806>
 8000f64:	e006      	b.n	8000f74 <HAL_RCC_OscConfig+0x834>
        }
      }
      else
      {
        /* PLL is already used as System core clock */
        return HAL_ERROR;
 8000f66:	2301      	movs	r3, #1
 8000f68:	e005      	b.n	8000f76 <HAL_RCC_OscConfig+0x836>
 8000f6a:	bf00      	nop
 8000f6c:	40021000 	.word	0x40021000
 8000f70:	019d808c 	.word	0x019d808c
      }
    }
  }
  return HAL_OK;
 8000f74:	2300      	movs	r3, #0
}
 8000f76:	4618      	mov	r0, r3
 8000f78:	3720      	adds	r7, #32
 8000f7a:	46bd      	mov	sp, r7
 8000f7c:	bd80      	pop	{r7, pc}
 8000f7e:	bf00      	nop

08000f80 <HAL_RCC_ClockConfig>:
  *         HPRE[3:0] bits to ensure that HCLK not exceed the maximum allowed frequency
  *         (for more details refer to section above "Initialization/de-initialization functions")
  * @retval None
  */
HAL_StatusTypeDef HAL_RCC_ClockConfig(RCC_ClkInitTypeDef  *RCC_ClkInitStruct, uint32_t FLatency)
{
 8000f80:	b580      	push	{r7, lr}
 8000f82:	b084      	sub	sp, #16
 8000f84:	af00      	add	r7, sp, #0
 8000f86:	6078      	str	r0, [r7, #4]
 8000f88:	6039      	str	r1, [r7, #0]
  uint32_t hpre = RCC_SYSCLK_DIV1;
#endif
  HAL_StatusTypeDef status;

  /* Check Null pointer */
  if(RCC_ClkInitStruct == NULL)
 8000f8a:	687b      	ldr	r3, [r7, #4]
 8000f8c:	2b00      	cmp	r3, #0
 8000f8e:	d101      	bne.n	8000f94 <HAL_RCC_ClockConfig+0x14>
  {
    return HAL_ERROR;
 8000f90:	2301      	movs	r3, #1
 8000f92:	e0c8      	b.n	8001126 <HAL_RCC_ClockConfig+0x1a6>
  /* To correctly read data from FLASH memory, the number of wait states (LATENCY)
    must be correctly programmed according to the frequency of the CPU clock
    (HCLK) and the supply voltage of the device. */

  /* Increasing the number of wait states because of higher CPU frequency */
  if(FLatency > __HAL_FLASH_GET_LATENCY())
 8000f94:	4b66      	ldr	r3, [pc, #408]	; (8001130 <HAL_RCC_ClockConfig+0x1b0>)
 8000f96:	681b      	ldr	r3, [r3, #0]
 8000f98:	f003 0307 	and.w	r3, r3, #7
 8000f9c:	683a      	ldr	r2, [r7, #0]
 8000f9e:	429a      	cmp	r2, r3
 8000fa0:	d910      	bls.n	8000fc4 <HAL_RCC_ClockConfig+0x44>
  {
    /* Program the new number of wait states to the LATENCY bits in the FLASH_ACR register */
    __HAL_FLASH_SET_LATENCY(FLatency);
 8000fa2:	4b63      	ldr	r3, [pc, #396]	; (8001130 <HAL_RCC_ClockConfig+0x1b0>)
 8000fa4:	681b      	ldr	r3, [r3, #0]
 8000fa6:	f023 0207 	bic.w	r2, r3, #7
 8000faa:	4961      	ldr	r1, [pc, #388]	; (8001130 <HAL_RCC_ClockConfig+0x1b0>)
 8000fac:	683b      	ldr	r3, [r7, #0]
 8000fae:	4313      	orrs	r3, r2
 8000fb0:	600b      	str	r3, [r1, #0]

    /* Check that the new number of wait states is taken into account to access the Flash
    memory by reading the FLASH_ACR register */
    if(__HAL_FLASH_GET_LATENCY() != FLatency)
 8000fb2:	4b5f      	ldr	r3, [pc, #380]	; (8001130 <HAL_RCC_ClockConfig+0x1b0>)
 8000fb4:	681b      	ldr	r3, [r3, #0]
 8000fb6:	f003 0307 	and.w	r3, r3, #7
 8000fba:	683a      	ldr	r2, [r7, #0]
 8000fbc:	429a      	cmp	r2, r3
 8000fbe:	d001      	beq.n	8000fc4 <HAL_RCC_ClockConfig+0x44>
    {
      return HAL_ERROR;
 8000fc0:	2301      	movs	r3, #1
 8000fc2:	e0b0      	b.n	8001126 <HAL_RCC_ClockConfig+0x1a6>
    }
  }

  /*------------------------- SYSCLK Configuration ---------------------------*/
  if(((RCC_ClkInitStruct->ClockType) & RCC_CLOCKTYPE_SYSCLK) == RCC_CLOCKTYPE_SYSCLK)
 8000fc4:	687b      	ldr	r3, [r7, #4]
 8000fc6:	681b      	ldr	r3, [r3, #0]
 8000fc8:	f003 0301 	and.w	r3, r3, #1
 8000fcc:	2b00      	cmp	r3, #0
 8000fce:	d04c      	beq.n	800106a <HAL_RCC_ClockConfig+0xea>
  {
    assert_param(IS_RCC_SYSCLKSOURCE(RCC_ClkInitStruct->SYSCLKSource));

    /* PLL is selected as System Clock Source */
    if(RCC_ClkInitStruct->SYSCLKSource == RCC_SYSCLKSOURCE_PLLCLK)
 8000fd0:	687b      	ldr	r3, [r7, #4]
 8000fd2:	685b      	ldr	r3, [r3, #4]
 8000fd4:	2b03      	cmp	r3, #3
 8000fd6:	d107      	bne.n	8000fe8 <HAL_RCC_ClockConfig+0x68>
    {
      /* Check the PLL ready flag */
      if(READ_BIT(RCC->CR, RCC_CR_PLLRDY) == 0U)
 8000fd8:	4b56      	ldr	r3, [pc, #344]	; (8001134 <HAL_RCC_ClockConfig+0x1b4>)
 8000fda:	681b      	ldr	r3, [r3, #0]
 8000fdc:	f003 7300 	and.w	r3, r3, #33554432	; 0x2000000
 8000fe0:	2b00      	cmp	r3, #0
 8000fe2:	d121      	bne.n	8001028 <HAL_RCC_ClockConfig+0xa8>
      {
        return HAL_ERROR;
 8000fe4:	2301      	movs	r3, #1
 8000fe6:	e09e      	b.n	8001126 <HAL_RCC_ClockConfig+0x1a6>
#endif
    }
    else
    {
      /* HSE is selected as System Clock Source */
      if(RCC_ClkInitStruct->SYSCLKSource == RCC_SYSCLKSOURCE_HSE)
 8000fe8:	687b      	ldr	r3, [r7, #4]
 8000fea:	685b      	ldr	r3, [r3, #4]
 8000fec:	2b02      	cmp	r3, #2
 8000fee:	d107      	bne.n	8001000 <HAL_RCC_ClockConfig+0x80>
      {
        /* Check the HSE ready flag */
        if(READ_BIT(RCC->CR, RCC_CR_HSERDY) == 0U)
 8000ff0:	4b50      	ldr	r3, [pc, #320]	; (8001134 <HAL_RCC_ClockConfig+0x1b4>)
 8000ff2:	681b      	ldr	r3, [r3, #0]
 8000ff4:	f403 3300 	and.w	r3, r3, #131072	; 0x20000
 8000ff8:	2b00      	cmp	r3, #0
 8000ffa:	d115      	bne.n	8001028 <HAL_RCC_ClockConfig+0xa8>
        {
          return HAL_ERROR;
 8000ffc:	2301      	movs	r3, #1
 8000ffe:	e092      	b.n	8001126 <HAL_RCC_ClockConfig+0x1a6>
        }
      }
      /* MSI is selected as System Clock Source */
      else if(RCC_ClkInitStruct->SYSCLKSource == RCC_SYSCLKSOURCE_MSI)
 8001000:	687b      	ldr	r3, [r7, #4]
 8001002:	685b      	ldr	r3, [r3, #4]
 8001004:	2b00      	cmp	r3, #0
 8001006:	d107      	bne.n	8001018 <HAL_RCC_ClockConfig+0x98>
      {
        /* Check the MSI ready flag */
        if(READ_BIT(RCC->CR, RCC_CR_MSIRDY) == 0U)
 8001008:	4b4a      	ldr	r3, [pc, #296]	; (8001134 <HAL_RCC_ClockConfig+0x1b4>)
 800100a:	681b      	ldr	r3, [r3, #0]
 800100c:	f003 0302 	and.w	r3, r3, #2
 8001010:	2b00      	cmp	r3, #0
 8001012:	d109      	bne.n	8001028 <HAL_RCC_ClockConfig+0xa8>
        {
          return HAL_ERROR;
 8001014:	2301      	movs	r3, #1
 8001016:	e086      	b.n	8001126 <HAL_RCC_ClockConfig+0x1a6>
      }
      /* HSI is selected as System Clock Source */
      else
      {
        /* Check the HSI ready flag */
        if(READ_BIT(RCC->CR, RCC_CR_HSIRDY) == 0U)
 8001018:	4b46      	ldr	r3, [pc, #280]	; (8001134 <HAL_RCC_ClockConfig+0x1b4>)
 800101a:	681b      	ldr	r3, [r3, #0]
 800101c:	f403 6380 	and.w	r3, r3, #1024	; 0x400
 8001020:	2b00      	cmp	r3, #0
 8001022:	d101      	bne.n	8001028 <HAL_RCC_ClockConfig+0xa8>
        {
          return HAL_ERROR;
 8001024:	2301      	movs	r3, #1
 8001026:	e07e      	b.n	8001126 <HAL_RCC_ClockConfig+0x1a6>
      }
#endif

    }

    MODIFY_REG(RCC->CFGR, RCC_CFGR_SW, RCC_ClkInitStruct->SYSCLKSource);
 8001028:	4b42      	ldr	r3, [pc, #264]	; (8001134 <HAL_RCC_ClockConfig+0x1b4>)
 800102a:	689b      	ldr	r3, [r3, #8]
 800102c:	f023 0203 	bic.w	r2, r3, #3
 8001030:	687b      	ldr	r3, [r7, #4]
 8001032:	685b      	ldr	r3, [r3, #4]
 8001034:	493f      	ldr	r1, [pc, #252]	; (8001134 <HAL_RCC_ClockConfig+0x1b4>)
 8001036:	4313      	orrs	r3, r2
 8001038:	608b      	str	r3, [r1, #8]

    /* Get Start Tick*/
    tickstart = HAL_GetTick();
 800103a:	f7ff fa2b 	bl	8000494 <HAL_GetTick>
 800103e:	60f8      	str	r0, [r7, #12]

    while(__HAL_RCC_GET_SYSCLK_SOURCE() != (RCC_ClkInitStruct->SYSCLKSource << RCC_CFGR_SWS_Pos))
 8001040:	e00a      	b.n	8001058 <HAL_RCC_ClockConfig+0xd8>
    {
      if((HAL_GetTick() - tickstart) > CLOCKSWITCH_TIMEOUT_VALUE)
 8001042:	f7ff fa27 	bl	8000494 <HAL_GetTick>
 8001046:	4602      	mov	r2, r0
 8001048:	68fb      	ldr	r3, [r7, #12]
 800104a:	1ad3      	subs	r3, r2, r3
 800104c:	f241 3288 	movw	r2, #5000	; 0x1388
 8001050:	4293      	cmp	r3, r2
 8001052:	d901      	bls.n	8001058 <HAL_RCC_ClockConfig+0xd8>
      {
        return HAL_TIMEOUT;
 8001054:	2303      	movs	r3, #3
 8001056:	e066      	b.n	8001126 <HAL_RCC_ClockConfig+0x1a6>
    while(__HAL_RCC_GET_SYSCLK_SOURCE() != (RCC_ClkInitStruct->SYSCLKSource << RCC_CFGR_SWS_Pos))
 8001058:	4b36      	ldr	r3, [pc, #216]	; (8001134 <HAL_RCC_ClockConfig+0x1b4>)
 800105a:	689b      	ldr	r3, [r3, #8]
 800105c:	f003 020c 	and.w	r2, r3, #12
 8001060:	687b      	ldr	r3, [r7, #4]
 8001062:	685b      	ldr	r3, [r3, #4]
 8001064:	009b      	lsls	r3, r3, #2
 8001066:	429a      	cmp	r2, r3
 8001068:	d1eb      	bne.n	8001042 <HAL_RCC_ClockConfig+0xc2>
      }
    }
  }

  /*-------------------------- HCLK Configuration --------------------------*/
  if(((RCC_ClkInitStruct->ClockType) & RCC_CLOCKTYPE_HCLK) == RCC_CLOCKTYPE_HCLK)
 800106a:	687b      	ldr	r3, [r7, #4]
 800106c:	681b      	ldr	r3, [r3, #0]
 800106e:	f003 0302 	and.w	r3, r3, #2
 8001072:	2b00      	cmp	r3, #0
 8001074:	d008      	beq.n	8001088 <HAL_RCC_ClockConfig+0x108>
  {
    assert_param(IS_RCC_HCLK(RCC_ClkInitStruct->AHBCLKDivider));
    MODIFY_REG(RCC->CFGR, RCC_CFGR_HPRE, RCC_ClkInitStruct->AHBCLKDivider);
 8001076:	4b2f      	ldr	r3, [pc, #188]	; (8001134 <HAL_RCC_ClockConfig+0x1b4>)
 8001078:	689b      	ldr	r3, [r3, #8]
 800107a:	f023 02f0 	bic.w	r2, r3, #240	; 0xf0
 800107e:	687b      	ldr	r3, [r7, #4]
 8001080:	689b      	ldr	r3, [r3, #8]
 8001082:	492c      	ldr	r1, [pc, #176]	; (8001134 <HAL_RCC_ClockConfig+0x1b4>)
 8001084:	4313      	orrs	r3, r2
 8001086:	608b      	str	r3, [r1, #8]
    }
  }
#endif

  /* Decreasing the number of wait states because of lower CPU frequency */
  if(FLatency < __HAL_FLASH_GET_LATENCY())
 8001088:	4b29      	ldr	r3, [pc, #164]	; (8001130 <HAL_RCC_ClockConfig+0x1b0>)
 800108a:	681b      	ldr	r3, [r3, #0]
 800108c:	f003 0307 	and.w	r3, r3, #7
 8001090:	683a      	ldr	r2, [r7, #0]
 8001092:	429a      	cmp	r2, r3
 8001094:	d210      	bcs.n	80010b8 <HAL_RCC_ClockConfig+0x138>
  {
    /* Program the new number of wait states to the LATENCY bits in the FLASH_ACR register */
    __HAL_FLASH_SET_LATENCY(FLatency);
 8001096:	4b26      	ldr	r3, [pc, #152]	; (8001130 <HAL_RCC_ClockConfig+0x1b0>)
 8001098:	681b      	ldr	r3, [r3, #0]
 800109a:	f023 0207 	bic.w	r2, r3, #7
 800109e:	4924      	ldr	r1, [pc, #144]	; (8001130 <HAL_RCC_ClockConfig+0x1b0>)
 80010a0:	683b      	ldr	r3, [r7, #0]
 80010a2:	4313      	orrs	r3, r2
 80010a4:	600b      	str	r3, [r1, #0]

    /* Check that the new number of wait states is taken into account to access the Flash
    memory by reading the FLASH_ACR register */
    if(__HAL_FLASH_GET_LATENCY() != FLatency)
 80010a6:	4b22      	ldr	r3, [pc, #136]	; (8001130 <HAL_RCC_ClockConfig+0x1b0>)
 80010a8:	681b      	ldr	r3, [r3, #0]
 80010aa:	f003 0307 	and.w	r3, r3, #7
 80010ae:	683a      	ldr	r2, [r7, #0]
 80010b0:	429a      	cmp	r2, r3
 80010b2:	d001      	beq.n	80010b8 <HAL_RCC_ClockConfig+0x138>
    {
      return HAL_ERROR;
 80010b4:	2301      	movs	r3, #1
 80010b6:	e036      	b.n	8001126 <HAL_RCC_ClockConfig+0x1a6>
    }
  }

  /*-------------------------- PCLK1 Configuration ---------------------------*/
  if(((RCC_ClkInitStruct->ClockType) & RCC_CLOCKTYPE_PCLK1) == RCC_CLOCKTYPE_PCLK1)
 80010b8:	687b      	ldr	r3, [r7, #4]
 80010ba:	681b      	ldr	r3, [r3, #0]
 80010bc:	f003 0304 	and.w	r3, r3, #4
 80010c0:	2b00      	cmp	r3, #0
 80010c2:	d008      	beq.n	80010d6 <HAL_RCC_ClockConfig+0x156>
  {
    assert_param(IS_RCC_PCLK(RCC_ClkInitStruct->APB1CLKDivider));
    MODIFY_REG(RCC->CFGR, RCC_CFGR_PPRE1, RCC_ClkInitStruct->APB1CLKDivider);
 80010c4:	4b1b      	ldr	r3, [pc, #108]	; (8001134 <HAL_RCC_ClockConfig+0x1b4>)
 80010c6:	689b      	ldr	r3, [r3, #8]
 80010c8:	f423 62e0 	bic.w	r2, r3, #1792	; 0x700
 80010cc:	687b      	ldr	r3, [r7, #4]
 80010ce:	68db      	ldr	r3, [r3, #12]
 80010d0:	4918      	ldr	r1, [pc, #96]	; (8001134 <HAL_RCC_ClockConfig+0x1b4>)
 80010d2:	4313      	orrs	r3, r2
 80010d4:	608b      	str	r3, [r1, #8]
  }

  /*-------------------------- PCLK2 Configuration ---------------------------*/
  if(((RCC_ClkInitStruct->ClockType) & RCC_CLOCKTYPE_PCLK2) == RCC_CLOCKTYPE_PCLK2)
 80010d6:	687b      	ldr	r3, [r7, #4]
 80010d8:	681b      	ldr	r3, [r3, #0]
 80010da:	f003 0308 	and.w	r3, r3, #8
 80010de:	2b00      	cmp	r3, #0
 80010e0:	d009      	beq.n	80010f6 <HAL_RCC_ClockConfig+0x176>
  {
    assert_param(IS_RCC_PCLK(RCC_ClkInitStruct->APB2CLKDivider));
    MODIFY_REG(RCC->CFGR, RCC_CFGR_PPRE2, ((RCC_ClkInitStruct->APB2CLKDivider) << 3U));
 80010e2:	4b14      	ldr	r3, [pc, #80]	; (8001134 <HAL_RCC_ClockConfig+0x1b4>)
 80010e4:	689b      	ldr	r3, [r3, #8]
 80010e6:	f423 5260 	bic.w	r2, r3, #14336	; 0x3800
 80010ea:	687b      	ldr	r3, [r7, #4]
 80010ec:	691b      	ldr	r3, [r3, #16]
 80010ee:	00db      	lsls	r3, r3, #3
 80010f0:	4910      	ldr	r1, [pc, #64]	; (8001134 <HAL_RCC_ClockConfig+0x1b4>)
 80010f2:	4313      	orrs	r3, r2
 80010f4:	608b      	str	r3, [r1, #8]
  }

  /* Update the SystemCoreClock global variable */
  SystemCoreClock = HAL_RCC_GetSysClockFreq() >> (AHBPrescTable[READ_BIT(RCC->CFGR, RCC_CFGR_HPRE) >> RCC_CFGR_HPRE_Pos] & 0x1FU);
 80010f6:	f000 f825 	bl	8001144 <HAL_RCC_GetSysClockFreq>
 80010fa:	4602      	mov	r2, r0
 80010fc:	4b0d      	ldr	r3, [pc, #52]	; (8001134 <HAL_RCC_ClockConfig+0x1b4>)
 80010fe:	689b      	ldr	r3, [r3, #8]
 8001100:	091b      	lsrs	r3, r3, #4
 8001102:	f003 030f 	and.w	r3, r3, #15
 8001106:	490c      	ldr	r1, [pc, #48]	; (8001138 <HAL_RCC_ClockConfig+0x1b8>)
 8001108:	5ccb      	ldrb	r3, [r1, r3]
 800110a:	f003 031f 	and.w	r3, r3, #31
 800110e:	fa22 f303 	lsr.w	r3, r2, r3
 8001112:	4a0a      	ldr	r2, [pc, #40]	; (800113c <HAL_RCC_ClockConfig+0x1bc>)
 8001114:	6013      	str	r3, [r2, #0]

  /* Configure the source of time base considering new system clocks settings*/
  status = HAL_InitTick(uwTickPrio);
 8001116:	4b0a      	ldr	r3, [pc, #40]	; (8001140 <HAL_RCC_ClockConfig+0x1c0>)
 8001118:	681b      	ldr	r3, [r3, #0]
 800111a:	4618      	mov	r0, r3
 800111c:	f7ff f96a 	bl	80003f4 <HAL_InitTick>
 8001120:	4603      	mov	r3, r0
 8001122:	72fb      	strb	r3, [r7, #11]

  return status;
 8001124:	7afb      	ldrb	r3, [r7, #11]
}
 8001126:	4618      	mov	r0, r3
 8001128:	3710      	adds	r7, #16
 800112a:	46bd      	mov	sp, r7
 800112c:	bd80      	pop	{r7, pc}
 800112e:	bf00      	nop
 8001130:	40022000 	.word	0x40022000
 8001134:	40021000 	.word	0x40021000
 8001138:	0800138c 	.word	0x0800138c
 800113c:	20000000 	.word	0x20000000
 8001140:	20000004 	.word	0x20000004

08001144 <HAL_RCC_GetSysClockFreq>:
  *
  *
  * @retval SYSCLK frequency
  */
uint32_t HAL_RCC_GetSysClockFreq(void)
{
 8001144:	b480      	push	{r7}
 8001146:	b089      	sub	sp, #36	; 0x24
 8001148:	af00      	add	r7, sp, #0
  uint32_t msirange = 0U, sysclockfreq = 0U;
 800114a:	2300      	movs	r3, #0
 800114c:	61fb      	str	r3, [r7, #28]
 800114e:	2300      	movs	r3, #0
 8001150:	61bb      	str	r3, [r7, #24]
  uint32_t pllvco, pllsource, pllr, pllm;    /* no init needed */
  uint32_t sysclk_source, pll_oscsource;

  sysclk_source = __HAL_RCC_GET_SYSCLK_SOURCE();
 8001152:	4b3e      	ldr	r3, [pc, #248]	; (800124c <HAL_RCC_GetSysClockFreq+0x108>)
 8001154:	689b      	ldr	r3, [r3, #8]
 8001156:	f003 030c 	and.w	r3, r3, #12
 800115a:	613b      	str	r3, [r7, #16]
  pll_oscsource = __HAL_RCC_GET_PLL_OSCSOURCE();
 800115c:	4b3b      	ldr	r3, [pc, #236]	; (800124c <HAL_RCC_GetSysClockFreq+0x108>)
 800115e:	68db      	ldr	r3, [r3, #12]
 8001160:	f003 0303 	and.w	r3, r3, #3
 8001164:	60fb      	str	r3, [r7, #12]

  if((sysclk_source == RCC_CFGR_SWS_MSI) ||
 8001166:	693b      	ldr	r3, [r7, #16]
 8001168:	2b00      	cmp	r3, #0
 800116a:	d005      	beq.n	8001178 <HAL_RCC_GetSysClockFreq+0x34>
 800116c:	693b      	ldr	r3, [r7, #16]
 800116e:	2b0c      	cmp	r3, #12
 8001170:	d121      	bne.n	80011b6 <HAL_RCC_GetSysClockFreq+0x72>
     ((sysclk_source == RCC_CFGR_SWS_PLL) && (pll_oscsource == RCC_PLLSOURCE_MSI)))
 8001172:	68fb      	ldr	r3, [r7, #12]
 8001174:	2b01      	cmp	r3, #1
 8001176:	d11e      	bne.n	80011b6 <HAL_RCC_GetSysClockFreq+0x72>
  {
    /* MSI or PLL with MSI source used as system clock source */

    /* Get SYSCLK source */
    if(READ_BIT(RCC->CR, RCC_CR_MSIRGSEL) == 0U)
 8001178:	4b34      	ldr	r3, [pc, #208]	; (800124c <HAL_RCC_GetSysClockFreq+0x108>)
 800117a:	681b      	ldr	r3, [r3, #0]
 800117c:	f003 0308 	and.w	r3, r3, #8
 8001180:	2b00      	cmp	r3, #0
 8001182:	d107      	bne.n	8001194 <HAL_RCC_GetSysClockFreq+0x50>
    { /* MSISRANGE from RCC_CSR applies */
      msirange = READ_BIT(RCC->CSR, RCC_CSR_MSISRANGE) >> RCC_CSR_MSISRANGE_Pos;
 8001184:	4b31      	ldr	r3, [pc, #196]	; (800124c <HAL_RCC_GetSysClockFreq+0x108>)
 8001186:	f8d3 3094 	ldr.w	r3, [r3, #148]	; 0x94
 800118a:	0a1b      	lsrs	r3, r3, #8
 800118c:	f003 030f 	and.w	r3, r3, #15
 8001190:	61fb      	str	r3, [r7, #28]
 8001192:	e005      	b.n	80011a0 <HAL_RCC_GetSysClockFreq+0x5c>
    }
    else
    { /* MSIRANGE from RCC_CR applies */
      msirange = READ_BIT(RCC->CR, RCC_CR_MSIRANGE) >> RCC_CR_MSIRANGE_Pos;
 8001194:	4b2d      	ldr	r3, [pc, #180]	; (800124c <HAL_RCC_GetSysClockFreq+0x108>)
 8001196:	681b      	ldr	r3, [r3, #0]
 8001198:	091b      	lsrs	r3, r3, #4
 800119a:	f003 030f 	and.w	r3, r3, #15
 800119e:	61fb      	str	r3, [r7, #28]
    }
    /*MSI frequency range in HZ*/
    msirange = MSIRangeTable[msirange];
 80011a0:	4a2b      	ldr	r2, [pc, #172]	; (8001250 <HAL_RCC_GetSysClockFreq+0x10c>)
 80011a2:	69fb      	ldr	r3, [r7, #28]
 80011a4:	f852 3023 	ldr.w	r3, [r2, r3, lsl #2]
 80011a8:	61fb      	str	r3, [r7, #28]

    if(sysclk_source == RCC_CFGR_SWS_MSI)
 80011aa:	693b      	ldr	r3, [r7, #16]
 80011ac:	2b00      	cmp	r3, #0
 80011ae:	d10d      	bne.n	80011cc <HAL_RCC_GetSysClockFreq+0x88>
    {
      /* MSI used as system clock source */
      sysclockfreq = msirange;
 80011b0:	69fb      	ldr	r3, [r7, #28]
 80011b2:	61bb      	str	r3, [r7, #24]
    if(sysclk_source == RCC_CFGR_SWS_MSI)
 80011b4:	e00a      	b.n	80011cc <HAL_RCC_GetSysClockFreq+0x88>
    }
  }
  else if(sysclk_source == RCC_CFGR_SWS_HSI)
 80011b6:	693b      	ldr	r3, [r7, #16]
 80011b8:	2b04      	cmp	r3, #4
 80011ba:	d102      	bne.n	80011c2 <HAL_RCC_GetSysClockFreq+0x7e>
  {
    /* HSI used as system clock source */
    sysclockfreq = HSI_VALUE;
 80011bc:	4b25      	ldr	r3, [pc, #148]	; (8001254 <HAL_RCC_GetSysClockFreq+0x110>)
 80011be:	61bb      	str	r3, [r7, #24]
 80011c0:	e004      	b.n	80011cc <HAL_RCC_GetSysClockFreq+0x88>
  }
  else if(sysclk_source == RCC_CFGR_SWS_HSE)
 80011c2:	693b      	ldr	r3, [r7, #16]
 80011c4:	2b08      	cmp	r3, #8
 80011c6:	d101      	bne.n	80011cc <HAL_RCC_GetSysClockFreq+0x88>
  {
    /* HSE used as system clock source */
    sysclockfreq = HSE_VALUE;
 80011c8:	4b23      	ldr	r3, [pc, #140]	; (8001258 <HAL_RCC_GetSysClockFreq+0x114>)
 80011ca:	61bb      	str	r3, [r7, #24]
  else
  {
    /* unexpected case: sysclockfreq at 0 */
  }

  if(sysclk_source == RCC_CFGR_SWS_PLL)
 80011cc:	693b      	ldr	r3, [r7, #16]
 80011ce:	2b0c      	cmp	r3, #12
 80011d0:	d134      	bne.n	800123c <HAL_RCC_GetSysClockFreq+0xf8>
    /* PLL used as system clock  source */

    /* PLL_VCO = (HSE_VALUE or HSI_VALUE or MSI_VALUE) * PLLN / PLLM
    SYSCLK = PLL_VCO / PLLR
    */
    pllsource = READ_BIT(RCC->PLLCFGR, RCC_PLLCFGR_PLLSRC);
 80011d2:	4b1e      	ldr	r3, [pc, #120]	; (800124c <HAL_RCC_GetSysClockFreq+0x108>)
 80011d4:	68db      	ldr	r3, [r3, #12]
 80011d6:	f003 0303 	and.w	r3, r3, #3
 80011da:	60bb      	str	r3, [r7, #8]

    switch (pllsource)
 80011dc:	68bb      	ldr	r3, [r7, #8]
 80011de:	2b02      	cmp	r3, #2
 80011e0:	d003      	beq.n	80011ea <HAL_RCC_GetSysClockFreq+0xa6>
 80011e2:	68bb      	ldr	r3, [r7, #8]
 80011e4:	2b03      	cmp	r3, #3
 80011e6:	d003      	beq.n	80011f0 <HAL_RCC_GetSysClockFreq+0xac>
 80011e8:	e005      	b.n	80011f6 <HAL_RCC_GetSysClockFreq+0xb2>
    {
    case RCC_PLLSOURCE_HSI:  /* HSI used as PLL clock source */
      pllvco = HSI_VALUE;
 80011ea:	4b1a      	ldr	r3, [pc, #104]	; (8001254 <HAL_RCC_GetSysClockFreq+0x110>)
 80011ec:	617b      	str	r3, [r7, #20]
      break;
 80011ee:	e005      	b.n	80011fc <HAL_RCC_GetSysClockFreq+0xb8>

    case RCC_PLLSOURCE_HSE:  /* HSE used as PLL clock source */
      pllvco = HSE_VALUE;
 80011f0:	4b19      	ldr	r3, [pc, #100]	; (8001258 <HAL_RCC_GetSysClockFreq+0x114>)
 80011f2:	617b      	str	r3, [r7, #20]
      break;
 80011f4:	e002      	b.n	80011fc <HAL_RCC_GetSysClockFreq+0xb8>

    case RCC_PLLSOURCE_MSI:  /* MSI used as PLL clock source */
    default:
      pllvco = msirange;
 80011f6:	69fb      	ldr	r3, [r7, #28]
 80011f8:	617b      	str	r3, [r7, #20]
      break;
 80011fa:	bf00      	nop
    }
    pllm = (READ_BIT(RCC->PLLCFGR, RCC_PLLCFGR_PLLM) >> RCC_PLLCFGR_PLLM_Pos) + 1U ;
 80011fc:	4b13      	ldr	r3, [pc, #76]	; (800124c <HAL_RCC_GetSysClockFreq+0x108>)
 80011fe:	68db      	ldr	r3, [r3, #12]
 8001200:	091b      	lsrs	r3, r3, #4
 8001202:	f003 0307 	and.w	r3, r3, #7
 8001206:	3301      	adds	r3, #1
 8001208:	607b      	str	r3, [r7, #4]
    pllvco = (pllvco * (READ_BIT(RCC->PLLCFGR, RCC_PLLCFGR_PLLN) >> RCC_PLLCFGR_PLLN_Pos)) / pllm;
 800120a:	4b10      	ldr	r3, [pc, #64]	; (800124c <HAL_RCC_GetSysClockFreq+0x108>)
 800120c:	68db      	ldr	r3, [r3, #12]
 800120e:	0a1b      	lsrs	r3, r3, #8
 8001210:	f003 037f 	and.w	r3, r3, #127	; 0x7f
 8001214:	697a      	ldr	r2, [r7, #20]
 8001216:	fb02 f203 	mul.w	r2, r2, r3
 800121a:	687b      	ldr	r3, [r7, #4]
 800121c:	fbb2 f3f3 	udiv	r3, r2, r3
 8001220:	617b      	str	r3, [r7, #20]
    pllr = ((READ_BIT(RCC->PLLCFGR, RCC_PLLCFGR_PLLR) >> RCC_PLLCFGR_PLLR_Pos) + 1U ) * 2U;
 8001222:	4b0a      	ldr	r3, [pc, #40]	; (800124c <HAL_RCC_GetSysClockFreq+0x108>)
 8001224:	68db      	ldr	r3, [r3, #12]
 8001226:	0e5b      	lsrs	r3, r3, #25
 8001228:	f003 0303 	and.w	r3, r3, #3
 800122c:	3301      	adds	r3, #1
 800122e:	005b      	lsls	r3, r3, #1
 8001230:	603b      	str	r3, [r7, #0]
    sysclockfreq = pllvco / pllr;
 8001232:	697a      	ldr	r2, [r7, #20]
 8001234:	683b      	ldr	r3, [r7, #0]
 8001236:	fbb2 f3f3 	udiv	r3, r2, r3
 800123a:	61bb      	str	r3, [r7, #24]
  }

  return sysclockfreq;
 800123c:	69bb      	ldr	r3, [r7, #24]
}
 800123e:	4618      	mov	r0, r3
 8001240:	3724      	adds	r7, #36	; 0x24
 8001242:	46bd      	mov	sp, r7
 8001244:	f85d 7b04 	ldr.w	r7, [sp], #4
 8001248:	4770      	bx	lr
 800124a:	bf00      	nop
 800124c:	40021000 	.word	0x40021000
 8001250:	0800139c 	.word	0x0800139c
 8001254:	00f42400 	.word	0x00f42400
 8001258:	007a1200 	.word	0x007a1200

0800125c <RCC_SetFlashLatencyFromMSIRange>:
            voltage range.
  * @param  msirange  MSI range value from RCC_MSIRANGE_0 to RCC_MSIRANGE_11
  * @retval HAL status
  */
static HAL_StatusTypeDef RCC_SetFlashLatencyFromMSIRange(uint32_t msirange)
{
 800125c:	b580      	push	{r7, lr}
 800125e:	b086      	sub	sp, #24
 8001260:	af00      	add	r7, sp, #0
 8001262:	6078      	str	r0, [r7, #4]
  uint32_t vos;
  uint32_t latency = FLASH_LATENCY_0;  /* default value 0WS */
 8001264:	2300      	movs	r3, #0
 8001266:	613b      	str	r3, [r7, #16]

  if(__HAL_RCC_PWR_IS_CLK_ENABLED())
 8001268:	4b2a      	ldr	r3, [pc, #168]	; (8001314 <RCC_SetFlashLatencyFromMSIRange+0xb8>)
 800126a:	6d9b      	ldr	r3, [r3, #88]	; 0x58
 800126c:	f003 5380 	and.w	r3, r3, #268435456	; 0x10000000
 8001270:	2b00      	cmp	r3, #0
 8001272:	d003      	beq.n	800127c <RCC_SetFlashLatencyFromMSIRange+0x20>
  {
    vos = HAL_PWREx_GetVoltageRange();
 8001274:	f7ff fa00 	bl	8000678 <HAL_PWREx_GetVoltageRange>
 8001278:	6178      	str	r0, [r7, #20]
 800127a:	e014      	b.n	80012a6 <RCC_SetFlashLatencyFromMSIRange+0x4a>
  }
  else
  {
    __HAL_RCC_PWR_CLK_ENABLE();
 800127c:	4b25      	ldr	r3, [pc, #148]	; (8001314 <RCC_SetFlashLatencyFromMSIRange+0xb8>)
 800127e:	6d9b      	ldr	r3, [r3, #88]	; 0x58
 8001280:	4a24      	ldr	r2, [pc, #144]	; (8001314 <RCC_SetFlashLatencyFromMSIRange+0xb8>)
 8001282:	f043 5380 	orr.w	r3, r3, #268435456	; 0x10000000
 8001286:	6593      	str	r3, [r2, #88]	; 0x58
 8001288:	4b22      	ldr	r3, [pc, #136]	; (8001314 <RCC_SetFlashLatencyFromMSIRange+0xb8>)
 800128a:	6d9b      	ldr	r3, [r3, #88]	; 0x58
 800128c:	f003 5380 	and.w	r3, r3, #268435456	; 0x10000000
 8001290:	60fb      	str	r3, [r7, #12]
 8001292:	68fb      	ldr	r3, [r7, #12]
    vos = HAL_PWREx_GetVoltageRange();
 8001294:	f7ff f9f0 	bl	8000678 <HAL_PWREx_GetVoltageRange>
 8001298:	6178      	str	r0, [r7, #20]
    __HAL_RCC_PWR_CLK_DISABLE();
 800129a:	4b1e      	ldr	r3, [pc, #120]	; (8001314 <RCC_SetFlashLatencyFromMSIRange+0xb8>)
 800129c:	6d9b      	ldr	r3, [r3, #88]	; 0x58
 800129e:	4a1d      	ldr	r2, [pc, #116]	; (8001314 <RCC_SetFlashLatencyFromMSIRange+0xb8>)
 80012a0:	f023 5380 	bic.w	r3, r3, #268435456	; 0x10000000
 80012a4:	6593      	str	r3, [r2, #88]	; 0x58
  }

  if(vos == PWR_REGULATOR_VOLTAGE_SCALE1)
 80012a6:	697b      	ldr	r3, [r7, #20]
 80012a8:	f5b3 7f00 	cmp.w	r3, #512	; 0x200
 80012ac:	d10b      	bne.n	80012c6 <RCC_SetFlashLatencyFromMSIRange+0x6a>
  {
    if(msirange > RCC_MSIRANGE_8)
 80012ae:	687b      	ldr	r3, [r7, #4]
 80012b0:	2b80      	cmp	r3, #128	; 0x80
 80012b2:	d919      	bls.n	80012e8 <RCC_SetFlashLatencyFromMSIRange+0x8c>
    {
      /* MSI > 16Mhz */
      if(msirange > RCC_MSIRANGE_10)
 80012b4:	687b      	ldr	r3, [r7, #4]
 80012b6:	2ba0      	cmp	r3, #160	; 0xa0
 80012b8:	d902      	bls.n	80012c0 <RCC_SetFlashLatencyFromMSIRange+0x64>
      {
        /* MSI 48Mhz */
        latency = FLASH_LATENCY_2; /* 2WS */
 80012ba:	2302      	movs	r3, #2
 80012bc:	613b      	str	r3, [r7, #16]
 80012be:	e013      	b.n	80012e8 <RCC_SetFlashLatencyFromMSIRange+0x8c>
      }
      else
      {
        /* MSI 24Mhz or 32Mhz */
        latency = FLASH_LATENCY_1; /* 1WS */
 80012c0:	2301      	movs	r3, #1
 80012c2:	613b      	str	r3, [r7, #16]
 80012c4:	e010      	b.n	80012e8 <RCC_SetFlashLatencyFromMSIRange+0x8c>
        latency = FLASH_LATENCY_1; /* 1WS */
      }
      /* else MSI < 8Mhz default FLASH_LATENCY_0 0WS */
    }
#else
    if(msirange > RCC_MSIRANGE_8)
 80012c6:	687b      	ldr	r3, [r7, #4]
 80012c8:	2b80      	cmp	r3, #128	; 0x80
 80012ca:	d902      	bls.n	80012d2 <RCC_SetFlashLatencyFromMSIRange+0x76>
    {
      /* MSI > 16Mhz */
      latency = FLASH_LATENCY_3; /* 3WS */
 80012cc:	2303      	movs	r3, #3
 80012ce:	613b      	str	r3, [r7, #16]
 80012d0:	e00a      	b.n	80012e8 <RCC_SetFlashLatencyFromMSIRange+0x8c>
    }
    else
    {
      if(msirange == RCC_MSIRANGE_8)
 80012d2:	687b      	ldr	r3, [r7, #4]
 80012d4:	2b80      	cmp	r3, #128	; 0x80
 80012d6:	d102      	bne.n	80012de <RCC_SetFlashLatencyFromMSIRange+0x82>
      {
        /* MSI 16Mhz */
        latency = FLASH_LATENCY_2; /* 2WS */
 80012d8:	2302      	movs	r3, #2
 80012da:	613b      	str	r3, [r7, #16]
 80012dc:	e004      	b.n	80012e8 <RCC_SetFlashLatencyFromMSIRange+0x8c>
      }
      else if(msirange == RCC_MSIRANGE_7)
 80012de:	687b      	ldr	r3, [r7, #4]
 80012e0:	2b70      	cmp	r3, #112	; 0x70
 80012e2:	d101      	bne.n	80012e8 <RCC_SetFlashLatencyFromMSIRange+0x8c>
      {
        /* MSI 8Mhz */
        latency = FLASH_LATENCY_1; /* 1WS */
 80012e4:	2301      	movs	r3, #1
 80012e6:	613b      	str	r3, [r7, #16]
      /* else MSI < 8Mhz default FLASH_LATENCY_0 0WS */
    }
#endif
  }

  __HAL_FLASH_SET_LATENCY(latency);
 80012e8:	4b0b      	ldr	r3, [pc, #44]	; (8001318 <RCC_SetFlashLatencyFromMSIRange+0xbc>)
 80012ea:	681b      	ldr	r3, [r3, #0]
 80012ec:	f023 0207 	bic.w	r2, r3, #7
 80012f0:	4909      	ldr	r1, [pc, #36]	; (8001318 <RCC_SetFlashLatencyFromMSIRange+0xbc>)
 80012f2:	693b      	ldr	r3, [r7, #16]
 80012f4:	4313      	orrs	r3, r2
 80012f6:	600b      	str	r3, [r1, #0]

  /* Check that the new number of wait states is taken into account to access the Flash
     memory by reading the FLASH_ACR register */
  if(__HAL_FLASH_GET_LATENCY() != latency)
 80012f8:	4b07      	ldr	r3, [pc, #28]	; (8001318 <RCC_SetFlashLatencyFromMSIRange+0xbc>)
 80012fa:	681b      	ldr	r3, [r3, #0]
 80012fc:	f003 0307 	and.w	r3, r3, #7
 8001300:	693a      	ldr	r2, [r7, #16]
 8001302:	429a      	cmp	r2, r3
 8001304:	d001      	beq.n	800130a <RCC_SetFlashLatencyFromMSIRange+0xae>
  {
    return HAL_ERROR;
 8001306:	2301      	movs	r3, #1
 8001308:	e000      	b.n	800130c <RCC_SetFlashLatencyFromMSIRange+0xb0>
  }

  return HAL_OK;
 800130a:	2300      	movs	r3, #0
}
 800130c:	4618      	mov	r0, r3
 800130e:	3718      	adds	r7, #24
 8001310:	46bd      	mov	sp, r7
 8001312:	bd80      	pop	{r7, pc}
 8001314:	40021000 	.word	0x40021000
 8001318:	40022000 	.word	0x40022000

0800131c <__libc_init_array>:
 800131c:	b570      	push	{r4, r5, r6, lr}
 800131e:	4d0d      	ldr	r5, [pc, #52]	; (8001354 <__libc_init_array+0x38>)
 8001320:	4c0d      	ldr	r4, [pc, #52]	; (8001358 <__libc_init_array+0x3c>)
 8001322:	1b64      	subs	r4, r4, r5
 8001324:	10a4      	asrs	r4, r4, #2
 8001326:	2600      	movs	r6, #0
 8001328:	42a6      	cmp	r6, r4
 800132a:	d109      	bne.n	8001340 <__libc_init_array+0x24>
 800132c:	4d0b      	ldr	r5, [pc, #44]	; (800135c <__libc_init_array+0x40>)
 800132e:	4c0c      	ldr	r4, [pc, #48]	; (8001360 <__libc_init_array+0x44>)
 8001330:	f000 f820 	bl	8001374 <_init>
 8001334:	1b64      	subs	r4, r4, r5
 8001336:	10a4      	asrs	r4, r4, #2
 8001338:	2600      	movs	r6, #0
 800133a:	42a6      	cmp	r6, r4
 800133c:	d105      	bne.n	800134a <__libc_init_array+0x2e>
 800133e:	bd70      	pop	{r4, r5, r6, pc}
 8001340:	f855 3b04 	ldr.w	r3, [r5], #4
 8001344:	4798      	blx	r3
 8001346:	3601      	adds	r6, #1
 8001348:	e7ee      	b.n	8001328 <__libc_init_array+0xc>
 800134a:	f855 3b04 	ldr.w	r3, [r5], #4
 800134e:	4798      	blx	r3
 8001350:	3601      	adds	r6, #1
 8001352:	e7f2      	b.n	800133a <__libc_init_array+0x1e>
 8001354:	080013cc 	.word	0x080013cc
 8001358:	080013cc 	.word	0x080013cc
 800135c:	080013cc 	.word	0x080013cc
 8001360:	080013d0 	.word	0x080013d0

08001364 <memset>:
 8001364:	4402      	add	r2, r0
 8001366:	4603      	mov	r3, r0
 8001368:	4293      	cmp	r3, r2
 800136a:	d100      	bne.n	800136e <memset+0xa>
 800136c:	4770      	bx	lr
 800136e:	f803 1b01 	strb.w	r1, [r3], #1
 8001372:	e7f9      	b.n	8001368 <memset+0x4>

08001374 <_init>:
 8001374:	b5f8      	push	{r3, r4, r5, r6, r7, lr}
 8001376:	bf00      	nop
 8001378:	bcf8      	pop	{r3, r4, r5, r6, r7}
 800137a:	bc08      	pop	{r3}
 800137c:	469e      	mov	lr, r3
 800137e:	4770      	bx	lr

08001380 <_fini>:
 8001380:	b5f8      	push	{r3, r4, r5, r6, r7, lr}
 8001382:	bf00      	nop
 8001384:	bcf8      	pop	{r3, r4, r5, r6, r7}
 8001386:	bc08      	pop	{r3}
 8001388:	469e      	mov	lr, r3
 800138a:	4770      	bx	lr
